---
triple:          'arm64-apple-darwin'
binary-path:     '/Users/lcy/dev/nano-ray/target/debug/deps/libnano_ray_core.dylib'
relocations:
  - { offsetInCU: 0x1E, offset: 0x1E, size: 0x8, addend: 0x0, symName: '__ZN4core6result19Result$LT$T$C$E$GT$3map17ha465bee96cbda5b0E', symObjAddr: 0x0, symBinAddr: 0x3C2C, symSize: 0x94 }
  - { offsetInCU: 0x1BC1, offset: 0x1BC1, size: 0x8, addend: 0x0, symName: '__ZN4core6result19Result$LT$T$C$E$GT$3map17ha465bee96cbda5b0E', symObjAddr: 0x0, symBinAddr: 0x3C2C, symSize: 0x94 }
  - { offsetInCU: 0x1C54, offset: 0x1C54, size: 0x8, addend: 0x0, symName: '__ZN4core6result19Result$LT$T$C$E$GT$3map17hf357913da6270ca6E', symObjAddr: 0x94, symBinAddr: 0x3CC0, symSize: 0x80 }
  - { offsetInCU: 0x1CFF, offset: 0x1CFF, size: 0x8, addend: 0x0, symName: '__ZN4core6result19Result$LT$T$C$E$GT$7map_err17hbbb25e4b1172d835E', symObjAddr: 0x114, symBinAddr: 0x3D40, symSize: 0x40 }
  - { offsetInCU: 0x1E, offset: 0x1D92, size: 0x8, addend: 0x0, symName: __ZN4pyo35impl_5panic9PanicTrap3new17h88f93746a90ae35fE, symObjAddr: 0x0, symBinAddr: 0x3D80, symSize: 0x18 }
  - { offsetInCU: 0xAD, offset: 0x1E21, size: 0x8, addend: 0x0, symName: __ZN4pyo35impl_5panic9PanicTrap3new17h88f93746a90ae35fE, symObjAddr: 0x0, symBinAddr: 0x3D80, symSize: 0x18 }
  - { offsetInCU: 0xCF, offset: 0x1E43, size: 0x8, addend: 0x0, symName: __ZN4pyo35impl_5panic9PanicTrap6disarm17h0ca1c5bde97cfca9E, symObjAddr: 0x18, symBinAddr: 0x3D98, symSize: 0x28 }
  - { offsetInCU: 0x1E, offset: 0x1E83, size: 0x8, addend: 0x0, symName: '__ZN4pyo35impl_9pymethods133_$LT$impl$u20$core..convert..From$LT$pyo3..impl_..pymethods..BoundRef$LT$T$GT$$GT$$u20$for$u20$$RF$pyo3..instance..Bound$LT$T$GT$$GT$4from17h2d76de23d843837bE', symObjAddr: 0x0, symBinAddr: 0x3DC0, symSize: 0x14 }
  - { offsetInCU: 0x1185, offset: 0x2FEA, size: 0x8, addend: 0x0, symName: '__ZN4pyo35impl_9pymethods133_$LT$impl$u20$core..convert..From$LT$pyo3..impl_..pymethods..BoundRef$LT$T$GT$$GT$$u20$for$u20$$RF$pyo3..instance..Bound$LT$T$GT$$GT$4from17h2d76de23d843837bE', symObjAddr: 0x0, symBinAddr: 0x3DC0, symSize: 0x14 }
  - { offsetInCU: 0x177B, offset: 0x35E0, size: 0x8, addend: 0x0, symName: '__ZN4pyo38instance11Py$LT$T$GT$8into_ptr17h29e836ab0913b7dfE', symObjAddr: 0x14, symBinAddr: 0x3DD4, symSize: 0x30 }
  - { offsetInCU: 0x1E, offset: 0x366F, size: 0x8, addend: 0x0, symName: __ZN13nano_ray_core5hello17h0ef0d17a158fef20E, symObjAddr: 0x0, symBinAddr: 0x3E04, symSize: 0x14 }
  - { offsetInCU: 0x13A3, offset: 0x49F4, size: 0x8, addend: 0x0, symName: __ZN13nano_ray_core5hello17h0ef0d17a158fef20E, symObjAddr: 0x0, symBinAddr: 0x3E04, symSize: 0x14 }
  - { offsetInCU: 0x13CA, offset: 0x4A1B, size: 0x8, addend: 0x0, symName: '__ZN13nano_ray_core47_$LT$impl$u20$nano_ray_core..hello..MakeDef$GT$9_PYO3_DEF10trampoline17h37f9bf7a60c7d221E', symObjAddr: 0x14, symBinAddr: 0x3E18, symSize: 0x44 }
  - { offsetInCU: 0x1406, offset: 0x4A57, size: 0x8, addend: 0x0, symName: __ZN13nano_ray_core18__pyfunction_hello17h65e3f5ecec9ff0c1E, symObjAddr: 0x58, symBinAddr: 0x3E5C, symSize: 0x54 }
  - { offsetInCU: 0x14A2, offset: 0x4AF3, size: 0x8, addend: 0x0, symName: __ZN13nano_ray_core5_core17h3601c36d29278aaaE, symObjAddr: 0xAC, symBinAddr: 0x3EB0, symSize: 0x174 }
  - { offsetInCU: 0x1588, offset: 0x4BD9, size: 0x8, addend: 0x0, symName: '__ZN13nano_ray_core47_$LT$impl$u20$nano_ray_core.._core..MakeDef$GT$8make_def15__pyo3_pymodule17hfdbed116db8e66c5E', symObjAddr: 0x220, symBinAddr: 0x4024, symSize: 0x38 }
  - { offsetInCU: 0x1E, offset: 0x53C0, size: 0x8, addend: 0x0, symName: __ZN4pyo35impl_10trampoline10trampoline17h0ad651b99578948fE, symObjAddr: 0x0, symBinAddr: 0x405C, symSize: 0x158 }
  - { offsetInCU: 0x12EE, offset: 0x6690, size: 0x8, addend: 0x0, symName: __ZN4pyo35impl_10trampoline10trampoline17h0ad651b99578948fE, symObjAddr: 0x0, symBinAddr: 0x405C, symSize: 0x158 }
  - { offsetInCU: 0x1391, offset: 0x6733, size: 0x8, addend: 0x0, symName: __ZN4pyo35impl_10trampoline10trampoline17h2eda2d9189425e67E, symObjAddr: 0x158, symBinAddr: 0x41B4, symSize: 0x14C }
  - { offsetInCU: 0x1438, offset: 0x67DA, size: 0x8, addend: 0x0, symName: '__ZN4pyo35impl_10trampoline10trampoline28_$u7b$$u7b$closure$u7d$$u7d$17h879b6283e4fbe35eE', symObjAddr: 0x2A4, symBinAddr: 0x4300, symSize: 0x2C }
  - { offsetInCU: 0x1486, offset: 0x6828, size: 0x8, addend: 0x0, symName: '__ZN4pyo35impl_10trampoline10trampoline28_$u7b$$u7b$closure$u7d$$u7d$17hf19da7a1caef0a69E', symObjAddr: 0x2D0, symBinAddr: 0x432C, symSize: 0x24 }
  - { offsetInCU: 0x14DA, offset: 0x687C, size: 0x8, addend: 0x0, symName: '__ZN4pyo35impl_10trampoline11module_init28_$u7b$$u7b$closure$u7d$$u7d$17ha3cf689eac288312E', symObjAddr: 0x2F4, symBinAddr: 0x4350, symSize: 0x40 }
  - { offsetInCU: 0x1526, offset: 0x68C8, size: 0x8, addend: 0x0, symName: '__ZN4pyo35impl_10trampoline11module_init28_$u7b$$u7b$closure$u7d$$u7d$28_$u7b$$u7b$closure$u7d$$u7d$17hf9b114a8dfa25a4fE', symObjAddr: 0x334, symBinAddr: 0x4390, symSize: 0x24 }
  - { offsetInCU: 0x157D, offset: 0x691F, size: 0x8, addend: 0x0, symName: '__ZN4pyo35impl_10trampoline6noargs28_$u7b$$u7b$closure$u7d$$u7d$17h5a0f5b486dd0d9b1E', symObjAddr: 0x358, symBinAddr: 0x43B4, symSize: 0x34 }
  - { offsetInCU: 0x1E, offset: 0x7100, size: 0x8, addend: 0x0, symName: '__ZN50_$LT$T$u20$as$u20$core..convert..Into$LT$U$GT$$GT$4into17h4575587a117c0d09E', symObjAddr: 0x0, symBinAddr: 0x43E8, symSize: 0x24 }
  - { offsetInCU: 0x802, offset: 0x78E4, size: 0x8, addend: 0x0, symName: '__ZN50_$LT$T$u20$as$u20$core..convert..Into$LT$U$GT$$GT$4into17h4575587a117c0d09E', symObjAddr: 0x0, symBinAddr: 0x43E8, symSize: 0x24 }
  - { offsetInCU: 0x1E, offset: 0x88B0, size: 0x8, addend: 0x0, symName: __ZN4pyo35impl_12deprecations12inspect_type17hd451264b79823a03E, symObjAddr: 0x0, symBinAddr: 0x440C, symSize: 0x18 }
  - { offsetInCU: 0x1192, offset: 0x9A24, size: 0x8, addend: 0x0, symName: __ZN4pyo35impl_12deprecations12inspect_type17hd451264b79823a03E, symObjAddr: 0x0, symBinAddr: 0x440C, symSize: 0x18 }
  - { offsetInCU: 0x1279, offset: 0x9B0B, size: 0x8, addend: 0x0, symName: '__ZN87_$LT$pyo3..impl_..deprecations..GilRefs$LT$T$GT$$u20$as$u20$core..ops..deref..Deref$GT$5deref17h8db11848cda4efd3E', symObjAddr: 0x3C, symBinAddr: 0x4448, symSize: 0x14 }
  - { offsetInCU: 0x12B4, offset: 0x9B46, size: 0x8, addend: 0x0, symName: '__ZN93_$LT$pyo3..impl_..deprecations..OptionGilRefs$LT$T$GT$$u20$as$u20$core..ops..deref..Deref$GT$5deref17h74887e899985c906E', symObjAddr: 0x50, symBinAddr: 0x445C, symSize: 0x14 }
  - { offsetInCU: 0x18B0, offset: 0xA142, size: 0x8, addend: 0x0, symName: '__ZN4pyo35impl_12deprecations16GilRefs$LT$T$GT$3new17h6dd0d318519edaabE', symObjAddr: 0x18, symBinAddr: 0x4424, symSize: 0x4 }
  - { offsetInCU: 0x18DA, offset: 0xA16C, size: 0x8, addend: 0x0, symName: '__ZN4pyo35impl_12deprecations19NotAGilRef$LT$T$GT$12function_arg17h9eba1bffc5556f75E', symObjAddr: 0x1C, symBinAddr: 0x4428, symSize: 0x10 }
  - { offsetInCU: 0x1905, offset: 0xA197, size: 0x8, addend: 0x0, symName: '__ZN4pyo35impl_12deprecations19NotAGilRef$LT$T$GT$9is_python17h6925965cd50ed561E', symObjAddr: 0x2C, symBinAddr: 0x4438, symSize: 0x10 }
  - { offsetInCU: 0x1E, offset: 0xA1FA, size: 0x8, addend: 0x0, symName: __ZN4pyo36marker6Python19assume_gil_acquired17hcbf5767418328a8dE, symObjAddr: 0x0, symBinAddr: 0x4470, symSize: 0x4 }
  - { offsetInCU: 0x160, offset: 0xA33C, size: 0x8, addend: 0x0, symName: __ZN4pyo36marker6Python19assume_gil_acquired17hcbf5767418328a8dE, symObjAddr: 0x0, symBinAddr: 0x4470, symSize: 0x4 }
  - { offsetInCU: 0x1E, offset: 0xA36D, size: 0x8, addend: 0x0, symName: __ZN3std9panicking3try7do_call17h7cb40b077ffcb292E, symObjAddr: 0x0, symBinAddr: 0x4474, symSize: 0x68 }
  - { offsetInCU: 0x1BA5, offset: 0xBEF4, size: 0x8, addend: 0x0, symName: __ZN3std9panicking3try7do_call17h7cb40b077ffcb292E, symObjAddr: 0x0, symBinAddr: 0x4474, symSize: 0x68 }
  - { offsetInCU: 0x1C8B, offset: 0xBFDA, size: 0x8, addend: 0x0, symName: __ZN3std9panicking3try7do_call17h8cf485ac4f6fb217E, symObjAddr: 0x68, symBinAddr: 0x44DC, symSize: 0x74 }
  - { offsetInCU: 0x1D71, offset: 0xC0C0, size: 0x8, addend: 0x0, symName: __ZN3std9panicking3try8do_catch17h248634d5e9510655E, symObjAddr: 0xDC, symBinAddr: 0x4550, symSize: 0x70 }
  - { offsetInCU: 0x1E06, offset: 0xC155, size: 0x8, addend: 0x0, symName: __ZN3std9panicking3try8do_catch17h36d73863caee99fcE, symObjAddr: 0x14C, symBinAddr: 0x45C0, symSize: 0x70 }
  - { offsetInCU: 0x1E, offset: 0xC350, size: 0x8, addend: 0x0, symName: __ZN4pyo35impl_4wrap19map_result_into_ptr17hd43f760bf8b801bbE, symObjAddr: 0x0, symBinAddr: 0x4630, symSize: 0x20 }
  - { offsetInCU: 0x135F, offset: 0xD691, size: 0x8, addend: 0x0, symName: __ZN4pyo35impl_4wrap19map_result_into_ptr17hd43f760bf8b801bbE, symObjAddr: 0x0, symBinAddr: 0x4630, symSize: 0x20 }
  - { offsetInCU: 0x13B3, offset: 0xD6E5, size: 0x8, addend: 0x0, symName: '__ZN4pyo35impl_4wrap19map_result_into_ptr28_$u7b$$u7b$closure$u7d$$u7d$17he7ac503b349b57e0E', symObjAddr: 0x20, symBinAddr: 0x4650, symSize: 0x3C }
  - { offsetInCU: 0x141A, offset: 0xD74C, size: 0x8, addend: 0x0, symName: '__ZN56_$LT$T$u20$as$u20$pyo3..impl_..wrap..OkWrap$LT$T$GT$$GT$4wrap17h3143b5724e9418edE', symObjAddr: 0x5C, symBinAddr: 0x468C, symSize: 0x28 }
  - { offsetInCU: 0x1E, offset: 0xDE3C, size: 0x8, addend: 0x0, symName: __ZN4pyo33gil8GILGuard6python17h4a8dbf0d39bdb556E, symObjAddr: 0x0, symBinAddr: 0x46B4, symSize: 0x20 }
  - { offsetInCU: 0xCE, offset: 0xDEEC, size: 0x8, addend: 0x0, symName: __ZN4pyo33gil8GILGuard6python17h4a8dbf0d39bdb556E, symObjAddr: 0x0, symBinAddr: 0x46B4, symSize: 0x20 }
  - { offsetInCU: 0x1E, offset: 0xDF2C, size: 0x8, addend: 0x0, symName: __ZN4pyo35impl_10trampoline11module_init17h2c60e342425572a9E, symObjAddr: 0x0, symBinAddr: 0x46D4, symSize: 0x28 }
  - { offsetInCU: 0x12EE, offset: 0xF1FC, size: 0x8, addend: 0x0, symName: __ZN4pyo35impl_10trampoline11module_init17h2c60e342425572a9E, symObjAddr: 0x0, symBinAddr: 0x46D4, symSize: 0x28 }
  - { offsetInCU: 0x131A, offset: 0xF228, size: 0x8, addend: 0x0, symName: __ZN4pyo35impl_10trampoline6noargs17hbe9d4f552b604522E, symObjAddr: 0x28, symBinAddr: 0x46FC, symSize: 0x64 }
  - { offsetInCU: 0x1E, offset: 0xF970, size: 0x8, addend: 0x0, symName: '__ZN4pyo311conversions3std6string119_$LT$impl$u20$pyo3..conversion..IntoPy$LT$pyo3..instance..Py$LT$pyo3..types..any..PyAny$GT$$GT$$u20$for$u20$$RF$str$GT$7into_py17h18bd520bf01b2450E', symObjAddr: 0x0, symBinAddr: 0x4760, symSize: 0x34 }
  - { offsetInCU: 0x1160, offset: 0x10AB2, size: 0x8, addend: 0x0, symName: '__ZN4pyo311conversions3std6string119_$LT$impl$u20$pyo3..conversion..IntoPy$LT$pyo3..instance..Py$LT$pyo3..types..any..PyAny$GT$$GT$$u20$for$u20$$RF$str$GT$7into_py17h18bd520bf01b2450E', symObjAddr: 0x0, symBinAddr: 0x4760, symSize: 0x34 }
  - { offsetInCU: 0x1E, offset: 0x110B8, size: 0x8, addend: 0x0, symName: '__ZN13nano_ray_core5_core11__pyo3_init28_$u7b$$u7b$closure$u7d$$u7d$17hf531638c0bebc624E', symObjAddr: 0x0, symBinAddr: 0x4794, symSize: 0x28 }
  - { offsetInCU: 0x126E, offset: 0x12308, size: 0x8, addend: 0x0, symName: '__ZN13nano_ray_core5_core11__pyo3_init28_$u7b$$u7b$closure$u7d$$u7d$17hf531638c0bebc624E', symObjAddr: 0x0, symBinAddr: 0x4794, symSize: 0x28 }
  - { offsetInCU: 0x1E, offset: 0x12A34, size: 0x8, addend: 0x0, symName: __ZN3std5panic12catch_unwind17h4a47c98dfa3d519fE, symObjAddr: 0x0, symBinAddr: 0x47BC, symSize: 0xC8 }
  - { offsetInCU: 0x1528, offset: 0x13F3E, size: 0x8, addend: 0x0, symName: __ZN3std5panic12catch_unwind17h4a47c98dfa3d519fE, symObjAddr: 0x0, symBinAddr: 0x47BC, symSize: 0xC8 }
  - { offsetInCU: 0x15D1, offset: 0x13FE7, size: 0x8, addend: 0x0, symName: __ZN3std5panic12catch_unwind17h6d70f6c28c51ae38E, symObjAddr: 0xC8, symBinAddr: 0x4884, symSize: 0xB8 }
  - { offsetInCU: 0x1E, offset: 0x148B8, size: 0x8, addend: 0x0, symName: __ZN4core3ops8function6FnOnce9call_once17h2a6e7f76355754abE, symObjAddr: 0x0, symBinAddr: 0x4990, symSize: 0x3C }
  - { offsetInCU: 0x800, offset: 0x1509A, size: 0x8, addend: 0x0, symName: __ZN4core3ops8function6FnOnce9call_once17h2a6e7f76355754abE, symObjAddr: 0x0, symBinAddr: 0x4990, symSize: 0x3C }
  - { offsetInCU: 0x1E, offset: 0x1625D, size: 0x8, addend: 0x0, symName: _PyInit__core, symObjAddr: 0x0, symBinAddr: 0x49CC, symSize: 0x34 }
  - { offsetInCU: 0x42, offset: 0x16281, size: 0x8, addend: 0x0, symName: __ZN13nano_ray_core5_core9_PYO3_DEF17h8acfa19ab9ae1c75E, symObjAddr: 0x90, symBinAddr: 0x6C2E0, symSize: 0x0 }
  - { offsetInCU: 0x4F, offset: 0x1628E, size: 0x8, addend: 0x0, symName: _PyInit__core, symObjAddr: 0x0, symBinAddr: 0x49CC, symSize: 0x34 }
  - { offsetInCU: 0x1E, offset: 0x17EE5, size: 0x8, addend: 0x0, symName: '__ZN42_$LT$$RF$T$u20$as$u20$core..fmt..Debug$GT$3fmt17h102e17ee69dc9617E', symObjAddr: 0x0, symBinAddr: 0x4A14, symSize: 0x30 }
  - { offsetInCU: 0x45E, offset: 0x18325, size: 0x8, addend: 0x0, symName: '__ZN42_$LT$$RF$T$u20$as$u20$core..fmt..Debug$GT$3fmt17h102e17ee69dc9617E', symObjAddr: 0x0, symBinAddr: 0x4A14, symSize: 0x30 }
  - { offsetInCU: 0x536, offset: 0x183FD, size: 0x8, addend: 0x0, symName: '__ZN4core5array4iter94_$LT$impl$u20$core..iter..traits..collect..IntoIterator$u20$for$u20$$u5b$T$u3b$$u20$N$u5d$$GT$9into_iter17h3501ce34b8c450d4E', symObjAddr: 0x238, symBinAddr: 0x4A44, symSize: 0x38 }
  - { offsetInCU: 0x5A2, offset: 0x18469, size: 0x8, addend: 0x0, symName: '__ZN50_$LT$T$u20$as$u20$core..convert..Into$LT$U$GT$$GT$4into17h695ddd3ce89deaf2E', symObjAddr: 0x308, symBinAddr: 0x4A7C, symSize: 0x24 }
  - { offsetInCU: 0x5E2, offset: 0x184A9, size: 0x8, addend: 0x0, symName: '__ZN50_$LT$T$u20$as$u20$core..convert..Into$LT$U$GT$$GT$4into17h7c462ae769e61fc1E', symObjAddr: 0x350, symBinAddr: 0x4AA0, symSize: 0x24 }
  - { offsetInCU: 0x622, offset: 0x184E9, size: 0x8, addend: 0x0, symName: '__ZN50_$LT$T$u20$as$u20$core..convert..Into$LT$U$GT$$GT$4into17hb06c9479237b3db6E', symObjAddr: 0x3BC, symBinAddr: 0x4AC4, symSize: 0x24 }
  - { offsetInCU: 0x662, offset: 0x18529, size: 0x8, addend: 0x0, symName: '__ZN50_$LT$T$u20$as$u20$core..convert..Into$LT$U$GT$$GT$4into17hb9676e81a6e25318E', symObjAddr: 0x3E0, symBinAddr: 0x4AE8, symSize: 0x24 }
  - { offsetInCU: 0x6A2, offset: 0x18569, size: 0x8, addend: 0x0, symName: '__ZN50_$LT$T$u20$as$u20$core..convert..Into$LT$U$GT$$GT$4into17he87f0e5d586d1873E', symObjAddr: 0x470, symBinAddr: 0x4B0C, symSize: 0x24 }
  - { offsetInCU: 0x2B95, offset: 0x1AA5C, size: 0x8, addend: 0x0, symName: '__ZN4pyo38instance36Bound$LT$pyo3..types..any..PyAny$GT$21from_owned_ptr_or_opt28_$u7b$$u7b$closure$u7d$$u7d$17habdc292a592690eeE', symObjAddr: 0x78C, symBinAddr: 0x4C24, symSize: 0x28 }
  - { offsetInCU: 0x2BF3, offset: 0x1AABA, size: 0x8, addend: 0x0, symName: '__ZN4pyo38instance36Bound$LT$pyo3..types..any..PyAny$GT$21from_owned_ptr_or_err28_$u7b$$u7b$closure$u7d$$u7d$17he7e40fae81dfdc5eE', symObjAddr: 0x7F4, symBinAddr: 0x4C8C, symSize: 0x28 }
  - { offsetInCU: 0x2D64, offset: 0x1AC2B, size: 0x8, addend: 0x0, symName: '__ZN67_$LT$pyo3..instance..Bound$LT$T$GT$$u20$as$u20$core..fmt..Debug$GT$3fmt17h0b49c00c15a4165cE', symObjAddr: 0x8B4, symBinAddr: 0x4CB4, symSize: 0x54 }
  - { offsetInCU: 0x2DC8, offset: 0x1AC8F, size: 0x8, addend: 0x0, symName: '__ZN67_$LT$pyo3..instance..Bound$LT$T$GT$$u20$as$u20$core..fmt..Debug$GT$3fmt17ha6e6fbfee82544b2E', symObjAddr: 0x908, symBinAddr: 0x4D08, symSize: 0x54 }
  - { offsetInCU: 0x2E2C, offset: 0x1ACF3, size: 0x8, addend: 0x0, symName: '__ZN67_$LT$pyo3..instance..Bound$LT$T$GT$$u20$as$u20$core..fmt..Debug$GT$3fmt17hf858dfaac6be600cE', symObjAddr: 0x95C, symBinAddr: 0x4D5C, symSize: 0x54 }
  - { offsetInCU: 0x2E96, offset: 0x1AD5D, size: 0x8, addend: 0x0, symName: '__ZN69_$LT$pyo3..instance..Bound$LT$T$GT$$u20$as$u20$core..fmt..Display$GT$3fmt17h375f89b57e079f46E', symObjAddr: 0xA04, symBinAddr: 0x4DB0, symSize: 0x54 }
  - { offsetInCU: 0x2EFB, offset: 0x1ADC2, size: 0x8, addend: 0x0, symName: __ZN4pyo38instance13python_format17h66c726765dd47825E, symObjAddr: 0xB00, symBinAddr: 0x4E04, symSize: 0x2E0 }
  - { offsetInCU: 0x2FA9, offset: 0x1AE70, size: 0x8, addend: 0x0, symName: '__ZN74_$LT$pyo3..instance..Bound$LT$T$GT$$u20$as$u20$core..ops..deref..Deref$GT$5deref17h35a5e0c1619e2997E', symObjAddr: 0xE4C, symBinAddr: 0x50E4, symSize: 0x24 }
  - { offsetInCU: 0x2FE0, offset: 0x1AEA7, size: 0x8, addend: 0x0, symName: '__ZN74_$LT$pyo3..instance..Bound$LT$T$GT$$u20$as$u20$core..ops..deref..Deref$GT$5deref17h401a24bedbc1a1b8E', symObjAddr: 0xE70, symBinAddr: 0x5108, symSize: 0x24 }
  - { offsetInCU: 0x3017, offset: 0x1AEDE, size: 0x8, addend: 0x0, symName: '__ZN74_$LT$pyo3..instance..Bound$LT$T$GT$$u20$as$u20$core..ops..deref..Deref$GT$5deref17h68ede964279ab8b7E', symObjAddr: 0xE94, symBinAddr: 0x512C, symSize: 0x24 }
  - { offsetInCU: 0x304E, offset: 0x1AF15, size: 0x8, addend: 0x0, symName: '__ZN74_$LT$pyo3..instance..Bound$LT$T$GT$$u20$as$u20$core..ops..deref..Deref$GT$5deref17hf8a44e72182a5a16E', symObjAddr: 0xF00, symBinAddr: 0x5150, symSize: 0x24 }
  - { offsetInCU: 0x308B, offset: 0x1AF52, size: 0x8, addend: 0x0, symName: '__ZN69_$LT$pyo3..instance..Bound$LT$T$GT$$u20$as$u20$core..clone..Clone$GT$5clone17h2933b5b4aa216ef2E', symObjAddr: 0xFB0, symBinAddr: 0x5174, symSize: 0x34 }
  - { offsetInCU: 0x30C2, offset: 0x1AF89, size: 0x8, addend: 0x0, symName: '__ZN69_$LT$pyo3..instance..Bound$LT$T$GT$$u20$as$u20$core..clone..Clone$GT$5clone17h6c3abc87ab391cc8E', symObjAddr: 0x1018, symBinAddr: 0x51A8, symSize: 0x34 }
  - { offsetInCU: 0x30F9, offset: 0x1AFC0, size: 0x8, addend: 0x0, symName: '__ZN69_$LT$pyo3..instance..Bound$LT$T$GT$$u20$as$u20$core..clone..Clone$GT$5clone17haf7285ec753ef71cE', symObjAddr: 0x10E8, symBinAddr: 0x51DC, symSize: 0x34 }
  - { offsetInCU: 0x3130, offset: 0x1AFF7, size: 0x8, addend: 0x0, symName: '__ZN69_$LT$pyo3..instance..Bound$LT$T$GT$$u20$as$u20$core..clone..Clone$GT$5clone17hd41c477620aae8ecE', symObjAddr: 0x11EC, symBinAddr: 0x5210, symSize: 0x34 }
  - { offsetInCU: 0x316D, offset: 0x1B034, size: 0x8, addend: 0x0, symName: '__ZN72_$LT$pyo3..instance..Bound$LT$T$GT$$u20$as$u20$core..ops..drop..Drop$GT$4drop17h11a47c4789eaabdfE', symObjAddr: 0x1254, symBinAddr: 0x5244, symSize: 0x1A8 }
  - { offsetInCU: 0x31DC, offset: 0x1B0A3, size: 0x8, addend: 0x0, symName: '__ZN72_$LT$pyo3..instance..Bound$LT$T$GT$$u20$as$u20$core..ops..drop..Drop$GT$4drop17h15f71bc53d97526dE', symObjAddr: 0x13FC, symBinAddr: 0x53EC, symSize: 0x1A8 }
  - { offsetInCU: 0x324B, offset: 0x1B112, size: 0x8, addend: 0x0, symName: '__ZN72_$LT$pyo3..instance..Bound$LT$T$GT$$u20$as$u20$core..ops..drop..Drop$GT$4drop17h49247856ec32843cE', symObjAddr: 0x1C44, symBinAddr: 0x5594, symSize: 0x1A8 }
  - { offsetInCU: 0x32BA, offset: 0x1B181, size: 0x8, addend: 0x0, symName: '__ZN72_$LT$pyo3..instance..Bound$LT$T$GT$$u20$as$u20$core..ops..drop..Drop$GT$4drop17h4abbe45787cca483E', symObjAddr: 0x1DEC, symBinAddr: 0x573C, symSize: 0x1A8 }
  - { offsetInCU: 0x3329, offset: 0x1B1F0, size: 0x8, addend: 0x0, symName: '__ZN72_$LT$pyo3..instance..Bound$LT$T$GT$$u20$as$u20$core..ops..drop..Drop$GT$4drop17h4bc049a21e362f46E', symObjAddr: 0x1F94, symBinAddr: 0x58E4, symSize: 0x1A8 }
  - { offsetInCU: 0x3398, offset: 0x1B25F, size: 0x8, addend: 0x0, symName: '__ZN72_$LT$pyo3..instance..Bound$LT$T$GT$$u20$as$u20$core..ops..drop..Drop$GT$4drop17h680227a4f98f1887E', symObjAddr: 0x2634, symBinAddr: 0x5A8C, symSize: 0x1A8 }
  - { offsetInCU: 0x3407, offset: 0x1B2CE, size: 0x8, addend: 0x0, symName: '__ZN72_$LT$pyo3..instance..Bound$LT$T$GT$$u20$as$u20$core..ops..drop..Drop$GT$4drop17h973820a4c1d78224E', symObjAddr: 0x2984, symBinAddr: 0x5C34, symSize: 0x1A8 }
  - { offsetInCU: 0x3476, offset: 0x1B33D, size: 0x8, addend: 0x0, symName: '__ZN72_$LT$pyo3..instance..Bound$LT$T$GT$$u20$as$u20$core..ops..drop..Drop$GT$4drop17hc823ea86f21a639dE', symObjAddr: 0x2E7C, symBinAddr: 0x5DDC, symSize: 0x1A8 }
  - { offsetInCU: 0x45E8, offset: 0x1C4AF, size: 0x8, addend: 0x0, symName: '__ZN77_$LT$pyo3..instance..Borrowed$LT$T$GT$$u20$as$u20$core..ops..deref..Deref$GT$5deref17h20053e47d291bfd4E', symObjAddr: 0x4E6C, symBinAddr: 0x66A0, symSize: 0x4C }
  - { offsetInCU: 0x461F, offset: 0x1C4E6, size: 0x8, addend: 0x0, symName: '__ZN77_$LT$pyo3..instance..Borrowed$LT$T$GT$$u20$as$u20$core..ops..deref..Deref$GT$5deref17h8d64dddc35651429E', symObjAddr: 0x4F50, symBinAddr: 0x66EC, symSize: 0x4C }
  - { offsetInCU: 0x4656, offset: 0x1C51D, size: 0x8, addend: 0x0, symName: '__ZN77_$LT$pyo3..instance..Borrowed$LT$T$GT$$u20$as$u20$core..ops..deref..Deref$GT$5deref17hc5003e4f44209556E', symObjAddr: 0x5034, symBinAddr: 0x6738, symSize: 0x4C }
  - { offsetInCU: 0x468D, offset: 0x1C554, size: 0x8, addend: 0x0, symName: '__ZN77_$LT$pyo3..instance..Borrowed$LT$T$GT$$u20$as$u20$core..ops..deref..Deref$GT$5deref17hf7d594c0972e6040E', symObjAddr: 0x5164, symBinAddr: 0x6784, symSize: 0x4C }
  - { offsetInCU: 0x46CF, offset: 0x1C596, size: 0x8, addend: 0x0, symName: '__ZN4pyo38instance11Py$LT$T$GT$21from_owned_ptr_or_opt28_$u7b$$u7b$closure$u7d$$u7d$17hbe65b26260937ac7E', symObjAddr: 0x6FEC, symBinAddr: 0x7384, symSize: 0x14 }
  - { offsetInCU: 0x4711, offset: 0x1C5D8, size: 0x8, addend: 0x0, symName: '__ZN4pyo38instance11Py$LT$T$GT$21from_owned_ptr_or_opt28_$u7b$$u7b$closure$u7d$$u7d$17hf7af97aab105fb6cE', symObjAddr: 0x7000, symBinAddr: 0x7398, symSize: 0x14 }
  - { offsetInCU: 0x4768, offset: 0x1C62F, size: 0x8, addend: 0x0, symName: '__ZN76_$LT$pyo3..instance..Py$LT$T$GT$$u20$as$u20$pyo3..conversion..ToPyObject$GT$9to_object17h2b5d715a700d21beE', symObjAddr: 0x71CC, symBinAddr: 0x7424, symSize: 0x28 }
  - { offsetInCU: 0x47C0, offset: 0x1C687, size: 0x8, addend: 0x0, symName: '__ZN79_$LT$pyo3..instance..Bound$LT$T$GT$$u20$as$u20$pyo3..conversion..ToPyObject$GT$9to_object17h12725e4459c45abfE', symObjAddr: 0x7264, symBinAddr: 0x744C, symSize: 0x28 }
  - { offsetInCU: 0x4812, offset: 0x1C6D9, size: 0x8, addend: 0x0, symName: '__ZN79_$LT$pyo3..instance..Bound$LT$T$GT$$u20$as$u20$pyo3..conversion..ToPyObject$GT$9to_object17hc222d525ace97639E', symObjAddr: 0x7354, symBinAddr: 0x7474, symSize: 0x28 }
  - { offsetInCU: 0x486A, offset: 0x1C731, size: 0x8, addend: 0x0, symName: '__ZN132_$LT$pyo3..instance..Bound$LT$T$GT$$u20$as$u20$pyo3..conversion..IntoPy$LT$pyo3..instance..Py$LT$pyo3..types..any..PyAny$GT$$GT$$GT$7into_py17h3593e6cb9c7003e0E', symObjAddr: 0x73CC, symBinAddr: 0x749C, symSize: 0x28 }
  - { offsetInCU: 0x48BC, offset: 0x1C783, size: 0x8, addend: 0x0, symName: '__ZN132_$LT$pyo3..instance..Bound$LT$T$GT$$u20$as$u20$pyo3..conversion..IntoPy$LT$pyo3..instance..Py$LT$pyo3..types..any..PyAny$GT$$GT$$GT$7into_py17h4efb2691c91adc95E', symObjAddr: 0x741C, symBinAddr: 0x74C4, symSize: 0x28 }
  - { offsetInCU: 0x490E, offset: 0x1C7D5, size: 0x8, addend: 0x0, symName: '__ZN132_$LT$pyo3..instance..Bound$LT$T$GT$$u20$as$u20$pyo3..conversion..IntoPy$LT$pyo3..instance..Py$LT$pyo3..types..any..PyAny$GT$$GT$$GT$7into_py17h96fc012fd69d783dE', symObjAddr: 0x7494, symBinAddr: 0x74EC, symSize: 0x28 }
  - { offsetInCU: 0x4960, offset: 0x1C827, size: 0x8, addend: 0x0, symName: '__ZN132_$LT$pyo3..instance..Bound$LT$T$GT$$u20$as$u20$pyo3..conversion..IntoPy$LT$pyo3..instance..Py$LT$pyo3..types..any..PyAny$GT$$GT$$GT$7into_py17hae3fa47c0f9ab116E', symObjAddr: 0x74BC, symBinAddr: 0x7514, symSize: 0x28 }
  - { offsetInCU: 0x49B2, offset: 0x1C879, size: 0x8, addend: 0x0, symName: '__ZN132_$LT$pyo3..instance..Bound$LT$T$GT$$u20$as$u20$pyo3..conversion..IntoPy$LT$pyo3..instance..Py$LT$pyo3..types..any..PyAny$GT$$GT$$GT$7into_py17hdccf88cbab21f14aE', symObjAddr: 0x7584, symBinAddr: 0x753C, symSize: 0x28 }
  - { offsetInCU: 0x4A0A, offset: 0x1C8D1, size: 0x8, addend: 0x0, symName: '__ZN124_$LT$pyo3..instance..Py$LT$pyo3..types..any..PyAny$GT$$u20$as$u20$core..convert..From$LT$pyo3..instance..Py$LT$T$GT$$GT$$GT$4from17hb0818ed34304f8f0E', symObjAddr: 0x7660, symBinAddr: 0x7564, symSize: 0x24 }
  - { offsetInCU: 0x4A47, offset: 0x1C90E, size: 0x8, addend: 0x0, symName: '__ZN127_$LT$pyo3..instance..Py$LT$pyo3..types..any..PyAny$GT$$u20$as$u20$core..convert..From$LT$pyo3..instance..Bound$LT$T$GT$$GT$$GT$4from17h068409095bb539fdE', symObjAddr: 0x76A8, symBinAddr: 0x7588, symSize: 0x84 }
  - { offsetInCU: 0x4A9C, offset: 0x1C963, size: 0x8, addend: 0x0, symName: '__ZN127_$LT$pyo3..instance..Py$LT$pyo3..types..any..PyAny$GT$$u20$as$u20$core..convert..From$LT$pyo3..instance..Bound$LT$T$GT$$GT$$GT$4from17h85667a6c7d2d8f5fE', symObjAddr: 0x78B8, symBinAddr: 0x760C, symSize: 0x84 }
  - { offsetInCU: 0x4AF7, offset: 0x1C9BE, size: 0x8, addend: 0x0, symName: '__ZN105_$LT$pyo3..instance..Py$LT$T$GT$$u20$as$u20$core..convert..From$LT$pyo3..instance..Bound$LT$T$GT$$GT$$GT$4from17h7e760a354ceefa59E', symObjAddr: 0x7A44, symBinAddr: 0x7690, symSize: 0x24 }
  - { offsetInCU: 0x4B2E, offset: 0x1C9F5, size: 0x8, addend: 0x0, symName: '__ZN105_$LT$pyo3..instance..Py$LT$T$GT$$u20$as$u20$core..convert..From$LT$pyo3..instance..Bound$LT$T$GT$$GT$$GT$4from17hea9b3c56987def67E', symObjAddr: 0x7A8C, symBinAddr: 0x76B4, symSize: 0x24 }
  - { offsetInCU: 0x4B6B, offset: 0x1CA32, size: 0x8, addend: 0x0, symName: '__ZN69_$LT$pyo3..instance..Py$LT$T$GT$$u20$as$u20$core..ops..drop..Drop$GT$4drop17h149c1830ceb93541E', symObjAddr: 0x7AB0, symBinAddr: 0x76D8, symSize: 0x28 }
  - { offsetInCU: 0x4B9E, offset: 0x1CA65, size: 0x8, addend: 0x0, symName: '__ZN69_$LT$pyo3..instance..Py$LT$T$GT$$u20$as$u20$core..ops..drop..Drop$GT$4drop17h6739063ae10a1964E', symObjAddr: 0x7AD8, symBinAddr: 0x7700, symSize: 0x28 }
  - { offsetInCU: 0x4BD1, offset: 0x1CA98, size: 0x8, addend: 0x0, symName: '__ZN69_$LT$pyo3..instance..Py$LT$T$GT$$u20$as$u20$core..ops..drop..Drop$GT$4drop17h6a6d65a9e6b80a17E', symObjAddr: 0x7B00, symBinAddr: 0x7728, symSize: 0x28 }
  - { offsetInCU: 0x4C04, offset: 0x1CACB, size: 0x8, addend: 0x0, symName: '__ZN69_$LT$pyo3..instance..Py$LT$T$GT$$u20$as$u20$core..ops..drop..Drop$GT$4drop17h9585f53548fda8e1E', symObjAddr: 0x7B50, symBinAddr: 0x7750, symSize: 0x28 }
  - { offsetInCU: 0x4C37, offset: 0x1CAFE, size: 0x8, addend: 0x0, symName: '__ZN69_$LT$pyo3..instance..Py$LT$T$GT$$u20$as$u20$core..ops..drop..Drop$GT$4drop17ha75001127dbbf444E', symObjAddr: 0x7B78, symBinAddr: 0x7778, symSize: 0x28 }
  - { offsetInCU: 0x4C6A, offset: 0x1CB31, size: 0x8, addend: 0x0, symName: '__ZN69_$LT$pyo3..instance..Py$LT$T$GT$$u20$as$u20$core..ops..drop..Drop$GT$4drop17hd2f52b238b40dc55E', symObjAddr: 0x7BA0, symBinAddr: 0x77A0, symSize: 0x28 }
  - { offsetInCU: 0x4CC3, offset: 0x1CB8A, size: 0x8, addend: 0x0, symName: '__ZN119_$LT$pyo3..instance..Bound$LT$pyo3..types..typeobject..PyType$GT$$u20$as$u20$pyo3..types..typeobject..PyTypeMethods$GT$11as_type_ptr17h0696a4628e78c70eE', symObjAddr: 0xD4F4, symBinAddr: 0x8850, symSize: 0x24 }
  - { offsetInCU: 0x4CEF, offset: 0x1CBB6, size: 0x8, addend: 0x0, symName: '__ZN119_$LT$pyo3..instance..Bound$LT$pyo3..types..typeobject..PyType$GT$$u20$as$u20$pyo3..types..typeobject..PyTypeMethods$GT$4name17haef30a231711d846E', symObjAddr: 0xD518, symBinAddr: 0x8874, symSize: 0xB8 }
  - { offsetInCU: 0x4D55, offset: 0x1CC1C, size: 0x8, addend: 0x0, symName: '__ZN119_$LT$pyo3..instance..Bound$LT$pyo3..types..typeobject..PyType$GT$$u20$as$u20$pyo3..types..typeobject..PyTypeMethods$GT$8qualname17ha7d59312ff0e865cE', symObjAddr: 0xD5D0, symBinAddr: 0x892C, symSize: 0xB8 }
  - { offsetInCU: 0x4DDC, offset: 0x1CCA3, size: 0x8, addend: 0x0, symName: '__ZN103_$LT$pyo3..instance..Bound$LT$pyo3..types..any..PyAny$GT$$u20$as$u20$pyo3..types..any..PyAnyMethods$GT$7getattr17h922a530fbfdc8ce9E', symObjAddr: 0x7D04, symBinAddr: 0x77C8, symSize: 0xE4 }
  - { offsetInCU: 0x4E38, offset: 0x1CCFF, size: 0x8, addend: 0x0, symName: '__ZN103_$LT$pyo3..instance..Bound$LT$pyo3..types..any..PyAny$GT$$u20$as$u20$pyo3..types..any..PyAnyMethods$GT$7setattr17ha07b5e3abdcd5d1bE', symObjAddr: 0x7DE8, symBinAddr: 0x78AC, symSize: 0x140 }
  - { offsetInCU: 0x4EAC, offset: 0x1CD73, size: 0x8, addend: 0x0, symName: '__ZN103_$LT$pyo3..instance..Bound$LT$pyo3..types..any..PyAny$GT$$u20$as$u20$pyo3..types..any..PyAnyMethods$GT$7setattr17hc00ac5cca14e32ccE', symObjAddr: 0x7F28, symBinAddr: 0x79EC, symSize: 0x11C }
  - { offsetInCU: 0x4F21, offset: 0x1CDE8, size: 0x8, addend: 0x0, symName: '__ZN103_$LT$pyo3..instance..Bound$LT$pyo3..types..any..PyAny$GT$$u20$as$u20$pyo3..types..any..PyAnyMethods$GT$8get_type17hbb73f594490c757aE', symObjAddr: 0x898C, symBinAddr: 0x7B08, symSize: 0x38 }
  - { offsetInCU: 0x4F4F, offset: 0x1CE16, size: 0x8, addend: 0x0, symName: '__ZN103_$LT$pyo3..instance..Bound$LT$pyo3..types..any..PyAny$GT$$u20$as$u20$pyo3..types..any..PyAnyMethods$GT$13downcast_into17h00d095f74b965968E', symObjAddr: 0x8CDC, symBinAddr: 0x7B40, symSize: 0xE8 }
  - { offsetInCU: 0x4F86, offset: 0x1CE4D, size: 0x8, addend: 0x0, symName: '__ZN103_$LT$pyo3..instance..Bound$LT$pyo3..types..any..PyAny$GT$$u20$as$u20$pyo3..types..any..PyAnyMethods$GT$13downcast_into17hc1cd9be9fab98d03E', symObjAddr: 0x924C, symBinAddr: 0x7C28, symSize: 0xE8 }
  - { offsetInCU: 0x4FBD, offset: 0x1CE84, size: 0x8, addend: 0x0, symName: '__ZN103_$LT$pyo3..instance..Bound$LT$pyo3..types..any..PyAny$GT$$u20$as$u20$pyo3..types..any..PyAnyMethods$GT$23downcast_into_unchecked17h1d09464cb0ce4d8bE', symObjAddr: 0x9774, symBinAddr: 0x7D10, symSize: 0x14 }
  - { offsetInCU: 0x4FF4, offset: 0x1CEBB, size: 0x8, addend: 0x0, symName: '__ZN103_$LT$pyo3..instance..Bound$LT$pyo3..types..any..PyAny$GT$$u20$as$u20$pyo3..types..any..PyAnyMethods$GT$23downcast_into_unchecked17h397b758a86760f22E', symObjAddr: 0x97B0, symBinAddr: 0x7D24, symSize: 0x14 }
  - { offsetInCU: 0x502B, offset: 0x1CEF2, size: 0x8, addend: 0x0, symName: '__ZN103_$LT$pyo3..instance..Bound$LT$pyo3..types..any..PyAny$GT$$u20$as$u20$pyo3..types..any..PyAnyMethods$GT$23downcast_into_unchecked17h764daba130900555E', symObjAddr: 0x9850, symBinAddr: 0x7D38, symSize: 0x14 }
  - { offsetInCU: 0x5062, offset: 0x1CF29, size: 0x8, addend: 0x0, symName: '__ZN103_$LT$pyo3..instance..Bound$LT$pyo3..types..any..PyAny$GT$$u20$as$u20$pyo3..types..any..PyAnyMethods$GT$23downcast_into_unchecked17h99704c098568cff8E', symObjAddr: 0x988C, symBinAddr: 0x7D4C, symSize: 0x14 }
  - { offsetInCU: 0x5099, offset: 0x1CF60, size: 0x8, addend: 0x0, symName: '__ZN103_$LT$pyo3..instance..Bound$LT$pyo3..types..any..PyAny$GT$$u20$as$u20$pyo3..types..any..PyAnyMethods$GT$23downcast_into_unchecked17hb5fd8891ea847d9cE', symObjAddr: 0x98F0, symBinAddr: 0x7D60, symSize: 0x14 }
  - { offsetInCU: 0x50D0, offset: 0x1CF97, size: 0x8, addend: 0x0, symName: '__ZN103_$LT$pyo3..instance..Bound$LT$pyo3..types..any..PyAny$GT$$u20$as$u20$pyo3..types..any..PyAnyMethods$GT$23downcast_into_unchecked17hcb673c471a9e3d3dE', symObjAddr: 0x992C, symBinAddr: 0x7D74, symSize: 0x14 }
  - { offsetInCU: 0x5107, offset: 0x1CFCE, size: 0x8, addend: 0x0, symName: '__ZN103_$LT$pyo3..instance..Bound$LT$pyo3..types..any..PyAny$GT$$u20$as$u20$pyo3..types..any..PyAnyMethods$GT$4repr17h386009355f98fb64E', symObjAddr: 0x9D2C, symBinAddr: 0x7D88, symSize: 0x5C }
  - { offsetInCU: 0x5135, offset: 0x1CFFC, size: 0x8, addend: 0x0, symName: '__ZN103_$LT$pyo3..instance..Bound$LT$pyo3..types..any..PyAny$GT$$u20$as$u20$pyo3..types..any..PyAnyMethods$GT$3str17hc8e32b78ad33d0eaE', symObjAddr: 0x9D88, symBinAddr: 0x7DE4, symSize: 0x5C }
  - { offsetInCU: 0x5184, offset: 0x1D04B, size: 0x8, addend: 0x0, symName: '__ZN115_$LT$pyo3..instance..Bound$LT$pyo3..types..string..PyString$GT$$u20$as$u20$pyo3..types..string..PyStringMethods$GT$6to_cow17h980a9989387b2dd3E', symObjAddr: 0xC424, symBinAddr: 0x852C, symSize: 0x30 }
  - { offsetInCU: 0x51B2, offset: 0x1D079, size: 0x8, addend: 0x0, symName: '__ZN115_$LT$pyo3..instance..Bound$LT$pyo3..types..string..PyString$GT$$u20$as$u20$pyo3..types..string..PyStringMethods$GT$15to_string_lossy17hf7a494fae51ef652E', symObjAddr: 0xC454, symBinAddr: 0x855C, symSize: 0x30 }
  - { offsetInCU: 0x5265, offset: 0x1D12C, size: 0x8, addend: 0x0, symName: '__ZN4pyo35types6string176_$LT$impl$u20$pyo3..conversion..IntoPy$LT$pyo3..instance..Py$LT$pyo3..types..string..PyString$GT$$GT$$u20$for$u20$pyo3..instance..Bound$LT$pyo3..types..string..PyString$GT$$GT$7into_py17h9c2524ce7bddbbeeE', symObjAddr: 0xC974, symBinAddr: 0x8804, symSize: 0x24 }
  - { offsetInCU: 0x52B4, offset: 0x1D17B, size: 0x8, addend: 0x0, symName: '__ZN4pyo35types6string180_$LT$impl$u20$pyo3..conversion..IntoPy$LT$pyo3..instance..Py$LT$pyo3..types..string..PyString$GT$$GT$$u20$for$u20$$RF$pyo3..instance..Bound$LT$pyo3..types..string..PyString$GT$$GT$7into_py17h90c416ed934ea494E', symObjAddr: 0xC998, symBinAddr: 0x8828, symSize: 0x28 }
  - { offsetInCU: 0x5339, offset: 0x1D200, size: 0x8, addend: 0x0, symName: '__ZN111_$LT$pyo3..instance..Bound$LT$pyo3..types..bytes..PyBytes$GT$$u20$as$u20$pyo3..types..bytes..PyBytesMethods$GT$8as_bytes17h282ac92c4053461fE', symObjAddr: 0xA2F4, symBinAddr: 0x7E40, symSize: 0x28 }
  - { offsetInCU: 0x53E9, offset: 0x1D2B0, size: 0x8, addend: 0x0, symName: '__ZN115_$LT$pyo3..instance..Bound$LT$pyo3..types..module..PyModule$GT$$u20$as$u20$pyo3..types..module..PyModuleMethods$GT$5index17h8d3d1c131444361fE', symObjAddr: 0xB800, symBinAddr: 0x7F7C, symSize: 0x238 }
  - { offsetInCU: 0x5498, offset: 0x1D35F, size: 0x8, addend: 0x0, symName: '__ZN115_$LT$pyo3..instance..Bound$LT$pyo3..types..module..PyModule$GT$$u20$as$u20$pyo3..types..module..PyModuleMethods$GT$4name17h63945ce1c6328a30E', symObjAddr: 0xBA38, symBinAddr: 0x81B4, symSize: 0x5C }
  - { offsetInCU: 0x54C6, offset: 0x1D38D, size: 0x8, addend: 0x0, symName: '__ZN115_$LT$pyo3..instance..Bound$LT$pyo3..types..module..PyModule$GT$$u20$as$u20$pyo3..types..module..PyModuleMethods$GT$3add17h7be42b6e930474a3E', symObjAddr: 0xBC28, symBinAddr: 0x8210, symSize: 0x13C }
  - { offsetInCU: 0x553A, offset: 0x1D401, size: 0x8, addend: 0x0, symName: '__ZN115_$LT$pyo3..instance..Bound$LT$pyo3..types..module..PyModule$GT$$u20$as$u20$pyo3..types..module..PyModuleMethods$GT$12add_function17hde6143b676ea3931E', symObjAddr: 0xBF9C, symBinAddr: 0x834C, symSize: 0x1E0 }
  - { offsetInCU: 0x560A, offset: 0x1D4D1, size: 0x8, addend: 0x0, symName: '__ZN107_$LT$pyo3..instance..Bound$LT$pyo3..types..list..PyList$GT$$u20$as$u20$pyo3..types..list..PyListMethods$GT$6append17h1b1543908e5fd669E', symObjAddr: 0xB5C0, symBinAddr: 0x7EFC, symSize: 0x80 }
  - { offsetInCU: 0x5740, offset: 0x1D607, size: 0x8, addend: 0x0, symName: '__ZN196_$LT$$RF$pyo3..instance..Bound$LT$pyo3..types..module..PyModule$GT$$u20$as$u20$pyo3..impl_..pyfunction..WrapPyFunctionArg$LT$pyo3..instance..Bound$LT$pyo3..types..function..PyCFunction$GT$$GT$$GT$15wrap_pyfunction17he393ceae67a589b9E', symObjAddr: 0x634, symBinAddr: 0x4B80, symSize: 0x4C }
  - { offsetInCU: 0x5869, offset: 0x1D730, size: 0x8, addend: 0x0, symName: '__ZN54_$LT$$RF$T$u20$as$u20$pyo3..conversion..ToPyObject$GT$9to_object17h18d48dd00f75b377E', symObjAddr: 0x53C, symBinAddr: 0x4B30, symSize: 0x28 }
  - { offsetInCU: 0x58BB, offset: 0x1D782, size: 0x8, addend: 0x0, symName: '__ZN54_$LT$$RF$T$u20$as$u20$pyo3..conversion..ToPyObject$GT$9to_object17hd7aa74376839cca9E', symObjAddr: 0x564, symBinAddr: 0x4B58, symSize: 0x28 }
  - { offsetInCU: 0x5ED4, offset: 0x1DD9B, size: 0x8, addend: 0x0, symName: '__ZN4pyo38instance36Bound$LT$pyo3..types..any..PyAny$GT$14from_owned_ptr17heec2c63d9cadde89E', symObjAddr: 0x734, symBinAddr: 0x4BCC, symSize: 0x2C }
  - { offsetInCU: 0x5F0F, offset: 0x1DDD6, size: 0x8, addend: 0x0, symName: '__ZN4pyo38instance36Bound$LT$pyo3..types..any..PyAny$GT$21from_owned_ptr_or_opt17hb0f5c7c772430d79E', symObjAddr: 0x760, symBinAddr: 0x4BF8, symSize: 0x2C }
  - { offsetInCU: 0x5F92, offset: 0x1DE59, size: 0x8, addend: 0x0, symName: '__ZN4pyo38instance36Bound$LT$pyo3..types..any..PyAny$GT$21from_owned_ptr_or_err17heaf59fd903280602E', symObjAddr: 0x7B4, symBinAddr: 0x4C4C, symSize: 0x40 }
  - { offsetInCU: 0x6001, offset: 0x1DEC8, size: 0x8, addend: 0x0, symName: '__ZN4pyo38instance14Bound$LT$T$GT$2py17h1c2e566cc55deb5dE', symObjAddr: 0x353C, symBinAddr: 0x5F84, symSize: 0x10 }
  - { offsetInCU: 0x6047, offset: 0x1DF0E, size: 0x8, addend: 0x0, symName: '__ZN4pyo38instance14Bound$LT$T$GT$2py17h6c43a928d34ed73cE', symObjAddr: 0x35BC, symBinAddr: 0x5F94, symSize: 0x10 }
  - { offsetInCU: 0x6080, offset: 0x1DF47, size: 0x8, addend: 0x0, symName: '__ZN4pyo38instance14Bound$LT$T$GT$2py17ha80f30388289bdf7E', symObjAddr: 0x362C, symBinAddr: 0x5FA4, symSize: 0x10 }
  - { offsetInCU: 0x60B9, offset: 0x1DF80, size: 0x8, addend: 0x0, symName: '__ZN4pyo38instance14Bound$LT$T$GT$2py17ha8a27dfefa6b3104E', symObjAddr: 0x363C, symBinAddr: 0x5FB4, symSize: 0x10 }
  - { offsetInCU: 0x60E5, offset: 0x1DFAC, size: 0x8, addend: 0x0, symName: '__ZN4pyo38instance14Bound$LT$T$GT$2py17hb0184a6eee75747fE', symObjAddr: 0x364C, symBinAddr: 0x5FC4, symSize: 0x10 }
  - { offsetInCU: 0x611E, offset: 0x1DFE5, size: 0x8, addend: 0x0, symName: '__ZN4pyo38instance14Bound$LT$T$GT$2py17hfb369018a1bc4929E', symObjAddr: 0x368C, symBinAddr: 0x5FD4, symSize: 0x10 }
  - { offsetInCU: 0x6157, offset: 0x1E01E, size: 0x8, addend: 0x0, symName: '__ZN4pyo38instance14Bound$LT$T$GT$6as_ptr17h12aeea30513d35aeE', symObjAddr: 0x3720, symBinAddr: 0x5FE4, symSize: 0x2C }
  - { offsetInCU: 0x6183, offset: 0x1E04A, size: 0x8, addend: 0x0, symName: '__ZN4pyo38instance14Bound$LT$T$GT$6as_ptr17h2915c309761f986cE', symObjAddr: 0x3828, symBinAddr: 0x6010, symSize: 0x2C }
  - { offsetInCU: 0x61AF, offset: 0x1E076, size: 0x8, addend: 0x0, symName: '__ZN4pyo38instance14Bound$LT$T$GT$6as_ptr17h2ec92c5763db8844E', symObjAddr: 0x3854, symBinAddr: 0x603C, symSize: 0x2C }
  - { offsetInCU: 0x61DB, offset: 0x1E0A2, size: 0x8, addend: 0x0, symName: '__ZN4pyo38instance14Bound$LT$T$GT$6as_ptr17h5b6a27b048138494E', symObjAddr: 0x3930, symBinAddr: 0x6068, symSize: 0x2C }
  - { offsetInCU: 0x6207, offset: 0x1E0CE, size: 0x8, addend: 0x0, symName: '__ZN4pyo38instance14Bound$LT$T$GT$6as_ptr17h9a6fd4924ba71f8dE', symObjAddr: 0x3A0C, symBinAddr: 0x6094, symSize: 0x2C }
  - { offsetInCU: 0x6233, offset: 0x1E0FA, size: 0x8, addend: 0x0, symName: '__ZN4pyo38instance14Bound$LT$T$GT$6as_ptr17had001bb6fcb310caE', symObjAddr: 0x3A64, symBinAddr: 0x60C0, symSize: 0x2C }
  - { offsetInCU: 0x625F, offset: 0x1E126, size: 0x8, addend: 0x0, symName: '__ZN4pyo38instance14Bound$LT$T$GT$6as_ptr17hd530d5535acf14fbE', symObjAddr: 0x3AE8, symBinAddr: 0x60EC, symSize: 0x2C }
  - { offsetInCU: 0x628B, offset: 0x1E152, size: 0x8, addend: 0x0, symName: '__ZN4pyo38instance14Bound$LT$T$GT$6as_ptr17hf178857bb37d6bfdE', symObjAddr: 0x3B6C, symBinAddr: 0x6118, symSize: 0x2C }
  - { offsetInCU: 0x62C4, offset: 0x1E18B, size: 0x8, addend: 0x0, symName: '__ZN4pyo38instance14Bound$LT$T$GT$6as_ptr17hfb6e405e92327795E', symObjAddr: 0x3B98, symBinAddr: 0x6144, symSize: 0x2C }
  - { offsetInCU: 0x62F0, offset: 0x1E1B7, size: 0x8, addend: 0x0, symName: '__ZN4pyo38instance14Bound$LT$T$GT$6as_any17h2847e8de02e7f932E', symObjAddr: 0x3C30, symBinAddr: 0x6170, symSize: 0x4C }
  - { offsetInCU: 0x631C, offset: 0x1E1E3, size: 0x8, addend: 0x0, symName: '__ZN4pyo38instance14Bound$LT$T$GT$6as_any17ha1ad432efa957fc5E', symObjAddr: 0x3D60, symBinAddr: 0x61BC, symSize: 0x4C }
  - { offsetInCU: 0x6348, offset: 0x1E20F, size: 0x8, addend: 0x0, symName: '__ZN4pyo38instance14Bound$LT$T$GT$6as_any17hab04c4f28bca3b88E', symObjAddr: 0x3DAC, symBinAddr: 0x6208, symSize: 0x4C }
  - { offsetInCU: 0x6374, offset: 0x1E23B, size: 0x8, addend: 0x0, symName: '__ZN4pyo38instance14Bound$LT$T$GT$6as_any17hd3fe1aee244d809bE', symObjAddr: 0x3E90, symBinAddr: 0x6254, symSize: 0x4C }
  - { offsetInCU: 0x63A0, offset: 0x1E267, size: 0x8, addend: 0x0, symName: '__ZN4pyo38instance14Bound$LT$T$GT$6as_any17he38bbb3cbc60fc7bE', symObjAddr: 0x3EDC, symBinAddr: 0x62A0, symSize: 0x4C }
  - { offsetInCU: 0x63CC, offset: 0x1E293, size: 0x8, addend: 0x0, symName: '__ZN4pyo38instance14Bound$LT$T$GT$6as_any17hf3bf7d25df19f7c4E', symObjAddr: 0x3F74, symBinAddr: 0x62EC, symSize: 0x4C }
  - { offsetInCU: 0x63F8, offset: 0x1E2BF, size: 0x8, addend: 0x0, symName: '__ZN4pyo38instance14Bound$LT$T$GT$8into_any17h3b8520ae7a368761E', symObjAddr: 0x4088, symBinAddr: 0x6338, symSize: 0x30 }
  - { offsetInCU: 0x6424, offset: 0x1E2EB, size: 0x8, addend: 0x0, symName: '__ZN4pyo38instance14Bound$LT$T$GT$8into_any17h5bbcca622300c88bE', symObjAddr: 0x40B8, symBinAddr: 0x6368, symSize: 0x30 }
  - { offsetInCU: 0x6450, offset: 0x1E317, size: 0x8, addend: 0x0, symName: '__ZN4pyo38instance14Bound$LT$T$GT$8into_any17h7eff7bc38ae3f0cbE', symObjAddr: 0x40E8, symBinAddr: 0x6398, symSize: 0x30 }
  - { offsetInCU: 0x647C, offset: 0x1E343, size: 0x8, addend: 0x0, symName: '__ZN4pyo38instance14Bound$LT$T$GT$8into_any17h7f802ed3f285b116E', symObjAddr: 0x4118, symBinAddr: 0x63C8, symSize: 0x30 }
  - { offsetInCU: 0x64A8, offset: 0x1E36F, size: 0x8, addend: 0x0, symName: '__ZN4pyo38instance14Bound$LT$T$GT$8into_any17hb8079ac4f755c798E', symObjAddr: 0x4208, symBinAddr: 0x63F8, symSize: 0x30 }
  - { offsetInCU: 0x64EE, offset: 0x1E3B5, size: 0x8, addend: 0x0, symName: '__ZN4pyo38instance14Bound$LT$T$GT$11as_borrowed17h34c955f49f4c6dc8E', symObjAddr: 0x43C8, symBinAddr: 0x6428, symSize: 0x40 }
  - { offsetInCU: 0x6527, offset: 0x1E3EE, size: 0x8, addend: 0x0, symName: '__ZN4pyo38instance14Bound$LT$T$GT$11as_borrowed17h593cc268b0a208a7E', symObjAddr: 0x4408, symBinAddr: 0x6468, symSize: 0x40 }
  - { offsetInCU: 0x656D, offset: 0x1E434, size: 0x8, addend: 0x0, symName: '__ZN4pyo38instance14Bound$LT$T$GT$6unbind17h9a327c2cd83c5b6bE', symObjAddr: 0x47D0, symBinAddr: 0x64A8, symSize: 0x48 }
  - { offsetInCU: 0x65B7, offset: 0x1E47E, size: 0x8, addend: 0x0, symName: '__ZN4pyo38instance14Bound$LT$T$GT$6unbind17hb7a9a5d8ad08f4eeE', symObjAddr: 0x4860, symBinAddr: 0x64F0, symSize: 0x48 }
  - { offsetInCU: 0x6601, offset: 0x1E4C8, size: 0x8, addend: 0x0, symName: '__ZN4pyo38instance14Bound$LT$T$GT$6unbind17hf1b0325b7d1f41e4E', symObjAddr: 0x4980, symBinAddr: 0x6538, symSize: 0x48 }
  - { offsetInCU: 0x664B, offset: 0x1E512, size: 0x8, addend: 0x0, symName: '__ZN4pyo38instance14Bound$LT$T$GT$6unbind17hfeb529023d5ca861E', symObjAddr: 0x49C8, symBinAddr: 0x6580, symSize: 0x48 }
  - { offsetInCU: 0x6695, offset: 0x1E55C, size: 0x8, addend: 0x0, symName: '__ZN4pyo38instance14Bound$LT$T$GT$6unbind17hffb9ea5a3909a918E', symObjAddr: 0x4A10, symBinAddr: 0x65C8, symSize: 0x48 }
  - { offsetInCU: 0x66DF, offset: 0x1E5A6, size: 0x8, addend: 0x0, symName: '__ZN4pyo38instance17Borrowed$LT$T$GT$8to_owned17ha6f84904a5684558E', symObjAddr: 0x4A84, symBinAddr: 0x6610, symSize: 0x2C }
  - { offsetInCU: 0x6718, offset: 0x1E5DF, size: 0x8, addend: 0x0, symName: '__ZN4pyo38instance17Borrowed$LT$T$GT$8to_owned17hf3ffdcdfbe41387bE', symObjAddr: 0x4B08, symBinAddr: 0x663C, symSize: 0x2C }
  - { offsetInCU: 0x6744, offset: 0x1E60B, size: 0x8, addend: 0x0, symName: '__ZN4pyo38instance39Borrowed$LT$pyo3..types..any..PyAny$GT$18from_ptr_unchecked17h37c51dda1f526ca2E', symObjAddr: 0x4C28, symBinAddr: 0x6668, symSize: 0x24 }
  - { offsetInCU: 0x6782, offset: 0x1E649, size: 0x8, addend: 0x0, symName: '__ZN4pyo38instance39Borrowed$LT$pyo3..types..any..PyAny$GT$18downcast_unchecked17hade2ed7bc8ff218fE', symObjAddr: 0x4DF8, symBinAddr: 0x668C, symSize: 0x14 }
  - { offsetInCU: 0x67AE, offset: 0x1E675, size: 0x8, addend: 0x0, symName: '__ZN4pyo38instance11Py$LT$T$GT$6as_ptr17h44dbb2173bc16f9eE', symObjAddr: 0x52EC, symBinAddr: 0x67D0, symSize: 0x1C }
  - { offsetInCU: 0x67E7, offset: 0x1E6AE, size: 0x8, addend: 0x0, symName: '__ZN4pyo38instance11Py$LT$T$GT$6as_ptr17h4944422715f319deE', symObjAddr: 0x5324, symBinAddr: 0x67EC, symSize: 0x1C }
  - { offsetInCU: 0x6820, offset: 0x1E6E7, size: 0x8, addend: 0x0, symName: '__ZN4pyo38instance11Py$LT$T$GT$6as_ptr17h7317c18b73280fc0E', symObjAddr: 0x53CC, symBinAddr: 0x6808, symSize: 0x1C }
  - { offsetInCU: 0x684C, offset: 0x1E713, size: 0x8, addend: 0x0, symName: '__ZN4pyo38instance11Py$LT$T$GT$6as_ptr17h7fa912e59c6af0cdE', symObjAddr: 0x53E8, symBinAddr: 0x6824, symSize: 0x1C }
  - { offsetInCU: 0x6885, offset: 0x1E74C, size: 0x8, addend: 0x0, symName: '__ZN4pyo38instance11Py$LT$T$GT$6as_ptr17h9fd6ef1f58c74ce9E', symObjAddr: 0x5420, symBinAddr: 0x6840, symSize: 0x1C }
  - { offsetInCU: 0x68B1, offset: 0x1E778, size: 0x8, addend: 0x0, symName: '__ZN4pyo38instance11Py$LT$T$GT$6as_ptr17ha9222efdd49ca3c5E', symObjAddr: 0x5474, symBinAddr: 0x685C, symSize: 0x1C }
  - { offsetInCU: 0x68EA, offset: 0x1E7B1, size: 0x8, addend: 0x0, symName: '__ZN4pyo38instance11Py$LT$T$GT$6as_ptr17hbf0aeaee47feaf1fE', symObjAddr: 0x54AC, symBinAddr: 0x6878, symSize: 0x1C }
  - { offsetInCU: 0x6916, offset: 0x1E7DD, size: 0x8, addend: 0x0, symName: '__ZN4pyo38instance11Py$LT$T$GT$6as_ptr17hce9975d714253ac2E', symObjAddr: 0x54E4, symBinAddr: 0x6894, symSize: 0x1C }
  - { offsetInCU: 0x694F, offset: 0x1E816, size: 0x8, addend: 0x0, symName: '__ZN4pyo38instance11Py$LT$T$GT$6as_ptr17hea3638f9b83f71c8E', symObjAddr: 0x5554, symBinAddr: 0x68B0, symSize: 0x1C }
  - { offsetInCU: 0x697B, offset: 0x1E842, size: 0x8, addend: 0x0, symName: '__ZN4pyo38instance11Py$LT$T$GT$8into_ptr17haf084505e951908eE', symObjAddr: 0x55A8, symBinAddr: 0x68CC, symSize: 0x30 }
  - { offsetInCU: 0x69A7, offset: 0x1E86E, size: 0x8, addend: 0x0, symName: '__ZN4pyo38instance11Py$LT$T$GT$8into_ptr17heee125b488bc49afE', symObjAddr: 0x55D8, symBinAddr: 0x68FC, symSize: 0x30 }
  - { offsetInCU: 0x69D3, offset: 0x1E89A, size: 0x8, addend: 0x0, symName: '__ZN4pyo38instance11Py$LT$T$GT$8into_any17h04eac8a6a6344b05E', symObjAddr: 0x5608, symBinAddr: 0x692C, symSize: 0x3C }
  - { offsetInCU: 0x69FF, offset: 0x1E8C6, size: 0x8, addend: 0x0, symName: '__ZN4pyo38instance11Py$LT$T$GT$8into_any17h0abba7d4acd5fdddE', symObjAddr: 0x5680, symBinAddr: 0x6968, symSize: 0x3C }
  - { offsetInCU: 0x6A2B, offset: 0x1E8F2, size: 0x8, addend: 0x0, symName: '__ZN4pyo38instance11Py$LT$T$GT$8into_any17h42e95b41139c6d26E', symObjAddr: 0x5734, symBinAddr: 0x69A4, symSize: 0x3C }
  - { offsetInCU: 0x6A57, offset: 0x1E91E, size: 0x8, addend: 0x0, symName: '__ZN4pyo38instance11Py$LT$T$GT$8into_any17h86a67d980b1d90c6E', symObjAddr: 0x5824, symBinAddr: 0x69E0, symSize: 0x3C }
  - { offsetInCU: 0x6A83, offset: 0x1E94A, size: 0x8, addend: 0x0, symName: '__ZN4pyo38instance11Py$LT$T$GT$8into_any17hbbae1c7ba8bc6785E', symObjAddr: 0x5914, symBinAddr: 0x6A1C, symSize: 0x3C }
  - { offsetInCU: 0x6AAF, offset: 0x1E976, size: 0x8, addend: 0x0, symName: '__ZN4pyo38instance11Py$LT$T$GT$8into_any17hfd65c16c8ad1542cE', symObjAddr: 0x5A04, symBinAddr: 0x6A58, symSize: 0x3C }
  - { offsetInCU: 0x6ADB, offset: 0x1E9A2, size: 0x8, addend: 0x0, symName: '__ZN4pyo38instance11Py$LT$T$GT$4bind17h0df390ea964778e2E', symObjAddr: 0x5A40, symBinAddr: 0x6A94, symSize: 0x4C }
  - { offsetInCU: 0x6B22, offset: 0x1E9E9, size: 0x8, addend: 0x0, symName: '__ZN4pyo38instance11Py$LT$T$GT$4bind17h1b400b70f6a7247bE', symObjAddr: 0x5AD8, symBinAddr: 0x6AE0, symSize: 0x4C }
  - { offsetInCU: 0x6B69, offset: 0x1EA30, size: 0x8, addend: 0x0, symName: '__ZN4pyo38instance11Py$LT$T$GT$4bind17h6e6e396529fa0fb1E', symObjAddr: 0x5B24, symBinAddr: 0x6B2C, symSize: 0x4C }
  - { offsetInCU: 0x6BB0, offset: 0x1EA77, size: 0x8, addend: 0x0, symName: '__ZN4pyo38instance11Py$LT$T$GT$4bind17ha2288d1424eec058E', symObjAddr: 0x5B70, symBinAddr: 0x6B78, symSize: 0x4C }
  - { offsetInCU: 0x6BF7, offset: 0x1EABE, size: 0x8, addend: 0x0, symName: '__ZN4pyo38instance11Py$LT$T$GT$10into_bound17h1d27460f111425acE', symObjAddr: 0x5BBC, symBinAddr: 0x6BC4, symSize: 0x1C }
  - { offsetInCU: 0x6C3E, offset: 0x1EB05, size: 0x8, addend: 0x0, symName: '__ZN4pyo38instance11Py$LT$T$GT$10into_bound17h26b1fe679000d107E', symObjAddr: 0x5BD8, symBinAddr: 0x6BE0, symSize: 0x1C }
  - { offsetInCU: 0x6C85, offset: 0x1EB4C, size: 0x8, addend: 0x0, symName: '__ZN4pyo38instance11Py$LT$T$GT$9clone_ref17h4760641efa0fd30cE', symObjAddr: 0x6040, symBinAddr: 0x6BFC, symSize: 0x100 }
  - { offsetInCU: 0x6D2C, offset: 0x1EBF3, size: 0x8, addend: 0x0, symName: '__ZN4pyo38instance11Py$LT$T$GT$9clone_ref17h8c2fa83590d4392cE', symObjAddr: 0x6340, symBinAddr: 0x6CFC, symSize: 0x100 }
  - { offsetInCU: 0x6DD3, offset: 0x1EC9A, size: 0x8, addend: 0x0, symName: '__ZN4pyo38instance11Py$LT$T$GT$9clone_ref17h8e674890eacd7f10E', symObjAddr: 0x6440, symBinAddr: 0x6DFC, symSize: 0x100 }
  - { offsetInCU: 0x6E7A, offset: 0x1ED41, size: 0x8, addend: 0x0, symName: '__ZN4pyo38instance11Py$LT$T$GT$9clone_ref17hb181c809f39f0d91E', symObjAddr: 0x6540, symBinAddr: 0x6EFC, symSize: 0x100 }
  - { offsetInCU: 0x6F21, offset: 0x1EDE8, size: 0x8, addend: 0x0, symName: '__ZN4pyo38instance11Py$LT$T$GT$9clone_ref17hc8effb2f9018e4edE', symObjAddr: 0x6740, symBinAddr: 0x6FFC, symSize: 0x100 }
  - { offsetInCU: 0x6FDB, offset: 0x1EEA2, size: 0x8, addend: 0x0, symName: '__ZN4pyo38instance11Py$LT$T$GT$14from_owned_ptr17h47c92c346036520aE', symObjAddr: 0x6D14, symBinAddr: 0x70FC, symSize: 0x50 }
  - { offsetInCU: 0x7022, offset: 0x1EEE9, size: 0x8, addend: 0x0, symName: '__ZN4pyo38instance11Py$LT$T$GT$14from_owned_ptr17hd770248c3cf35439E', symObjAddr: 0x6DB4, symBinAddr: 0x714C, symSize: 0x50 }
  - { offsetInCU: 0x7069, offset: 0x1EF30, size: 0x8, addend: 0x0, symName: '__ZN4pyo38instance11Py$LT$T$GT$21from_owned_ptr_or_err17h52a51a66dfe4833eE', symObjAddr: 0x6E04, symBinAddr: 0x719C, symSize: 0x88 }
  - { offsetInCU: 0x70CE, offset: 0x1EF95, size: 0x8, addend: 0x0, symName: '__ZN4pyo38instance11Py$LT$T$GT$21from_owned_ptr_or_err17h6d285e63e13c2372E', symObjAddr: 0x6E8C, symBinAddr: 0x7224, symSize: 0x88 }
  - { offsetInCU: 0x7133, offset: 0x1EFFA, size: 0x8, addend: 0x0, symName: '__ZN4pyo38instance11Py$LT$T$GT$21from_owned_ptr_or_err17h7f99f05c5efa1340E', symObjAddr: 0x6F14, symBinAddr: 0x72AC, symSize: 0x88 }
  - { offsetInCU: 0x7198, offset: 0x1F05F, size: 0x8, addend: 0x0, symName: '__ZN4pyo38instance11Py$LT$T$GT$21from_owned_ptr_or_opt17ha39774ae71d6b072E', symObjAddr: 0x6F9C, symBinAddr: 0x7334, symSize: 0x28 }
  - { offsetInCU: 0x71DF, offset: 0x1F0A6, size: 0x8, addend: 0x0, symName: '__ZN4pyo38instance11Py$LT$T$GT$21from_owned_ptr_or_opt17haf6cd8d00b1df8a5E', symObjAddr: 0x6FC4, symBinAddr: 0x735C, symSize: 0x28 }
  - { offsetInCU: 0x7226, offset: 0x1F0ED, size: 0x8, addend: 0x0, symName: '__ZN4pyo38instance11Py$LT$T$GT$13from_non_null17h21c551be45894ae1E', symObjAddr: 0x703C, symBinAddr: 0x73AC, symSize: 0x14 }
  - { offsetInCU: 0x7252, offset: 0x1F119, size: 0x8, addend: 0x0, symName: '__ZN4pyo38instance11Py$LT$T$GT$13from_non_null17h23ef73177b94e810E', symObjAddr: 0x7050, symBinAddr: 0x73C0, symSize: 0x14 }
  - { offsetInCU: 0x727E, offset: 0x1F145, size: 0x8, addend: 0x0, symName: '__ZN4pyo38instance11Py$LT$T$GT$13from_non_null17h40846ac9fabfedb3E', symObjAddr: 0x7078, symBinAddr: 0x73D4, symSize: 0x14 }
  - { offsetInCU: 0x72AA, offset: 0x1F171, size: 0x8, addend: 0x0, symName: '__ZN4pyo38instance11Py$LT$T$GT$13from_non_null17h4a5b3ed51cb13f8eE', symObjAddr: 0x708C, symBinAddr: 0x73E8, symSize: 0x14 }
  - { offsetInCU: 0x72D6, offset: 0x1F19D, size: 0x8, addend: 0x0, symName: '__ZN4pyo38instance11Py$LT$T$GT$13from_non_null17h867c721f45d3e46aE', symObjAddr: 0x70F0, symBinAddr: 0x73FC, symSize: 0x14 }
  - { offsetInCU: 0x7302, offset: 0x1F1C9, size: 0x8, addend: 0x0, symName: '__ZN4pyo38instance11Py$LT$T$GT$13from_non_null17hfb88760f91043633E', symObjAddr: 0x71A4, symBinAddr: 0x7410, symSize: 0x14 }
  - { offsetInCU: 0x7384, offset: 0x1F24B, size: 0x8, addend: 0x0, symName: '__ZN4pyo35types5bytes77_$LT$impl$u20$pyo3..instance..Borrowed$LT$pyo3..types..bytes..PyBytes$GT$$GT$8as_bytes17h74d813d5412014f8E', symObjAddr: 0xA31C, symBinAddr: 0x7E68, symSize: 0x94 }
  - { offsetInCU: 0x73D0, offset: 0x1F297, size: 0x8, addend: 0x0, symName: '__ZN4pyo35types6string79_$LT$impl$u20$pyo3..instance..Borrowed$LT$pyo3..types..string..PyString$GT$$GT$6to_str17h93db41a457b85700E', symObjAddr: 0xC510, symBinAddr: 0x858C, symSize: 0xC4 }
  - { offsetInCU: 0x742F, offset: 0x1F2F6, size: 0x8, addend: 0x0, symName: '__ZN4pyo35types6string79_$LT$impl$u20$pyo3..instance..Borrowed$LT$pyo3..types..string..PyString$GT$$GT$6to_cow17hd15b58ff91d04946E', symObjAddr: 0xC5D4, symBinAddr: 0x8650, symSize: 0x3C }
  - { offsetInCU: 0x7452, offset: 0x1F319, size: 0x8, addend: 0x0, symName: '__ZN4pyo35types6string79_$LT$impl$u20$pyo3..instance..Borrowed$LT$pyo3..types..string..PyString$GT$$GT$15to_string_lossy17h68f9de3b1fdd8b48E', symObjAddr: 0xC610, symBinAddr: 0x868C, symSize: 0x178 }
  - { offsetInCU: 0xD10, offset: 0x20296, size: 0x8, addend: 0x0, symName: '__ZN152_$LT$core..result..Result$LT$pyo3..instance..Bound$LT$pyo3..types..any..PyAny$GT$$C$pyo3..err..PyErr$GT$$u20$as$u20$pyo3..py_result_ext..PyResultExt$GT$23downcast_into_unchecked17h2b3fc835dcd67c94E', symObjAddr: 0x647C, symBinAddr: 0x9894, symSize: 0x14 }
  - { offsetInCU: 0xD46, offset: 0x202CC, size: 0x8, addend: 0x0, symName: '__ZN152_$LT$core..result..Result$LT$pyo3..instance..Bound$LT$pyo3..types..any..PyAny$GT$$C$pyo3..err..PyErr$GT$$u20$as$u20$pyo3..py_result_ext..PyResultExt$GT$23downcast_into_unchecked17h6a94a0c5393e0104E', symObjAddr: 0x6508, symBinAddr: 0x98A8, symSize: 0x14 }
  - { offsetInCU: 0x1A2B, offset: 0x20FB1, size: 0x8, addend: 0x0, symName: '__ZN153_$LT$core..result..Result$LT$T$C$F$GT$$u20$as$u20$core..ops..try_trait..FromResidual$LT$core..result..Result$LT$core..convert..Infallible$C$E$GT$$GT$$GT$13from_residual17h4f66e3a41fc2a217E', symObjAddr: 0x840, symBinAddr: 0x89E4, symSize: 0x48 }
  - { offsetInCU: 0x1AB0, offset: 0x21036, size: 0x8, addend: 0x0, symName: '__ZN153_$LT$core..result..Result$LT$T$C$F$GT$$u20$as$u20$core..ops..try_trait..FromResidual$LT$core..result..Result$LT$core..convert..Infallible$C$E$GT$$GT$$GT$13from_residual17h7e164c29fcb5dc8bE', symObjAddr: 0xAA8, symBinAddr: 0x8A2C, symSize: 0x48 }
  - { offsetInCU: 0x1B35, offset: 0x210BB, size: 0x8, addend: 0x0, symName: '__ZN153_$LT$core..result..Result$LT$T$C$F$GT$$u20$as$u20$core..ops..try_trait..FromResidual$LT$core..result..Result$LT$core..convert..Infallible$C$E$GT$$GT$$GT$13from_residual17ha801fb8193008971E', symObjAddr: 0xF2C, symBinAddr: 0x8A74, symSize: 0x58 }
  - { offsetInCU: 0x1B9D, offset: 0x21123, size: 0x8, addend: 0x0, symName: '__ZN153_$LT$core..result..Result$LT$T$C$F$GT$$u20$as$u20$core..ops..try_trait..FromResidual$LT$core..result..Result$LT$core..convert..Infallible$C$E$GT$$GT$$GT$13from_residual17hc77f7303e0bf444eE', symObjAddr: 0x10B4, symBinAddr: 0x8ACC, symSize: 0x48 }
  - { offsetInCU: 0x1C22, offset: 0x211A8, size: 0x8, addend: 0x0, symName: '__ZN153_$LT$core..result..Result$LT$T$C$F$GT$$u20$as$u20$core..ops..try_trait..FromResidual$LT$core..result..Result$LT$core..convert..Infallible$C$E$GT$$GT$$GT$13from_residual17hd74d69ab337e7991E', symObjAddr: 0x11F4, symBinAddr: 0x8B14, symSize: 0x48 }
  - { offsetInCU: 0x1CA7, offset: 0x2122D, size: 0x8, addend: 0x0, symName: '__ZN153_$LT$core..result..Result$LT$T$C$F$GT$$u20$as$u20$core..ops..try_trait..FromResidual$LT$core..result..Result$LT$core..convert..Infallible$C$E$GT$$GT$$GT$13from_residual17hd81666356d9a0dbfE', symObjAddr: 0x123C, symBinAddr: 0x8B5C, symSize: 0x48 }
  - { offsetInCU: 0x1D2C, offset: 0x212B2, size: 0x8, addend: 0x0, symName: '__ZN153_$LT$core..result..Result$LT$T$C$F$GT$$u20$as$u20$core..ops..try_trait..FromResidual$LT$core..result..Result$LT$core..convert..Infallible$C$E$GT$$GT$$GT$13from_residual17he7fd2aeccf20705fE', symObjAddr: 0x13EC, symBinAddr: 0x8BA4, symSize: 0x48 }
  - { offsetInCU: 0x3E59, offset: 0x233DF, size: 0x8, addend: 0x0, symName: '__ZN79_$LT$core..result..Result$LT$T$C$E$GT$$u20$as$u20$core..ops..try_trait..Try$GT$6branch17h34bd78c7255a66f5E', symObjAddr: 0x4F1C, symBinAddr: 0x94B8, symSize: 0x28 }
  - { offsetInCU: 0x3EB7, offset: 0x2343D, size: 0x8, addend: 0x0, symName: '__ZN79_$LT$core..result..Result$LT$T$C$E$GT$$u20$as$u20$core..ops..try_trait..Try$GT$6branch17h414784e8ef599367E', symObjAddr: 0x4FC4, symBinAddr: 0x94E0, symSize: 0x80 }
  - { offsetInCU: 0x3F35, offset: 0x234BB, size: 0x8, addend: 0x0, symName: '__ZN79_$LT$core..result..Result$LT$T$C$E$GT$$u20$as$u20$core..ops..try_trait..Try$GT$6branch17h552efeca791779b6E', symObjAddr: 0x5180, symBinAddr: 0x9560, symSize: 0x70 }
  - { offsetInCU: 0x3FB3, offset: 0x23539, size: 0x8, addend: 0x0, symName: '__ZN79_$LT$core..result..Result$LT$T$C$E$GT$$u20$as$u20$core..ops..try_trait..Try$GT$6branch17h65d5c1405d601539E', symObjAddr: 0x5304, symBinAddr: 0x95D0, symSize: 0x14 }
  - { offsetInCU: 0x3FEF, offset: 0x23575, size: 0x8, addend: 0x0, symName: '__ZN79_$LT$core..result..Result$LT$T$C$E$GT$$u20$as$u20$core..ops..try_trait..Try$GT$6branch17h6d5727d896f3466eE', symObjAddr: 0x53A0, symBinAddr: 0x95E4, symSize: 0x80 }
  - { offsetInCU: 0x406D, offset: 0x235F3, size: 0x8, addend: 0x0, symName: '__ZN79_$LT$core..result..Result$LT$T$C$E$GT$$u20$as$u20$core..ops..try_trait..Try$GT$6branch17h6d9248a86bb1a5a1E', symObjAddr: 0x5420, symBinAddr: 0x9664, symSize: 0x28 }
  - { offsetInCU: 0x40CB, offset: 0x23651, size: 0x8, addend: 0x0, symName: '__ZN79_$LT$core..result..Result$LT$T$C$E$GT$$u20$as$u20$core..ops..try_trait..Try$GT$6branch17h7789c3d093833b7fE', symObjAddr: 0x5448, symBinAddr: 0x968C, symSize: 0x80 }
  - { offsetInCU: 0x4149, offset: 0x236CF, size: 0x8, addend: 0x0, symName: '__ZN79_$LT$core..result..Result$LT$T$C$E$GT$$u20$as$u20$core..ops..try_trait..Try$GT$6branch17hcef61cb7ef1c1491E', symObjAddr: 0x5D94, symBinAddr: 0x970C, symSize: 0x88 }
  - { offsetInCU: 0x41C7, offset: 0x2374D, size: 0x8, addend: 0x0, symName: '__ZN79_$LT$core..result..Result$LT$T$C$E$GT$$u20$as$u20$core..ops..try_trait..Try$GT$6branch17hd8f16591a54e2553E', symObjAddr: 0x5EBC, symBinAddr: 0x9794, symSize: 0x80 }
  - { offsetInCU: 0x4245, offset: 0x237CB, size: 0x8, addend: 0x0, symName: '__ZN79_$LT$core..result..Result$LT$T$C$E$GT$$u20$as$u20$core..ops..try_trait..Try$GT$6branch17hddbb58fcdbc61332E', symObjAddr: 0x6050, symBinAddr: 0x9814, symSize: 0x80 }
  - { offsetInCU: 0x5B29, offset: 0x250AF, size: 0x8, addend: 0x0, symName: '__ZN4core6result19Result$LT$T$C$E$GT$14unwrap_or_else17h55556f6602b361f3E', symObjAddr: 0x1904, symBinAddr: 0x8BEC, symSize: 0x8C }
  - { offsetInCU: 0x5BB3, offset: 0x25139, size: 0x8, addend: 0x0, symName: '__ZN4core6result19Result$LT$T$C$E$GT$3map17h130644e4e0fb90c7E', symObjAddr: 0x1B10, symBinAddr: 0x8C78, symSize: 0x80 }
  - { offsetInCU: 0x5C65, offset: 0x251EB, size: 0x8, addend: 0x0, symName: '__ZN4core6result19Result$LT$T$C$E$GT$3map17h21c019bca54959e0E', symObjAddr: 0x1C10, symBinAddr: 0x8CF8, symSize: 0x98 }
  - { offsetInCU: 0x5D12, offset: 0x25298, size: 0x8, addend: 0x0, symName: '__ZN4core6result19Result$LT$T$C$E$GT$3map17h4c61f6e9777bef45E', symObjAddr: 0x1E24, symBinAddr: 0x8D90, symSize: 0x8C }
  - { offsetInCU: 0x5DD5, offset: 0x2535B, size: 0x8, addend: 0x0, symName: '__ZN4core6result19Result$LT$T$C$E$GT$3map17h940734d9d4fbe9f4E', symObjAddr: 0x22E8, symBinAddr: 0x8E1C, symSize: 0x8C }
  - { offsetInCU: 0x5E68, offset: 0x253EE, size: 0x8, addend: 0x0, symName: '__ZN4core6result19Result$LT$T$C$E$GT$3map17hbcb9f894957847d7E', symObjAddr: 0x2474, symBinAddr: 0x8EA8, symSize: 0x90 }
  - { offsetInCU: 0x5EFB, offset: 0x25481, size: 0x8, addend: 0x0, symName: '__ZN4core6result19Result$LT$T$C$E$GT$3map17hcb7068e3d3bb1c1cE', symObjAddr: 0x2604, symBinAddr: 0x8F38, symSize: 0x80 }
  - { offsetInCU: 0x5F8E, offset: 0x25514, size: 0x8, addend: 0x0, symName: '__ZN4core6result19Result$LT$T$C$E$GT$6expect17h2d924a1397227d93E', symObjAddr: 0x2AF8, symBinAddr: 0x8FB8, symSize: 0xA8 }
  - { offsetInCU: 0x5FF1, offset: 0x25577, size: 0x8, addend: 0x0, symName: '__ZN4core6result19Result$LT$T$C$E$GT$6expect17h7b643cdc0247902eE', symObjAddr: 0x2DF4, symBinAddr: 0x9060, symSize: 0x84 }
  - { offsetInCU: 0x6071, offset: 0x255F7, size: 0x8, addend: 0x0, symName: '__ZN4core6result19Result$LT$T$C$E$GT$6expect17h93b8e432b4bc1444E', symObjAddr: 0x2F20, symBinAddr: 0x90E4, symSize: 0xBC }
  - { offsetInCU: 0x60D4, offset: 0x2565A, size: 0x8, addend: 0x0, symName: '__ZN4core6result19Result$LT$T$C$E$GT$6expect17ha39f1885edc89164E', symObjAddr: 0x2FDC, symBinAddr: 0x91A0, symSize: 0x9C }
  - { offsetInCU: 0x6178, offset: 0x256FE, size: 0x8, addend: 0x0, symName: '__ZN4core6result19Result$LT$T$C$E$GT$7map_err17h4464b5629ad1a95bE', symObjAddr: 0x38AC, symBinAddr: 0x923C, symSize: 0x88 }
  - { offsetInCU: 0x6223, offset: 0x257A9, size: 0x8, addend: 0x0, symName: '__ZN4core6result19Result$LT$T$C$E$GT$7map_err17h5d54796deb5a90eeE', symObjAddr: 0x3A9C, symBinAddr: 0x92C4, symSize: 0xA4 }
  - { offsetInCU: 0x62C4, offset: 0x2584A, size: 0x8, addend: 0x0, symName: '__ZN4core6result19Result$LT$T$C$E$GT$9unwrap_or17h40fc2d81ef4efc1cE', symObjAddr: 0x49B4, symBinAddr: 0x9368, symSize: 0xD4 }
  - { offsetInCU: 0x6342, offset: 0x258C8, size: 0x8, addend: 0x0, symName: '__ZN4core6result19Result$LT$T$C$E$GT$9unwrap_or17hba796f7c84f25763E', symObjAddr: 0x4A88, symBinAddr: 0x943C, symSize: 0x7C }
  - { offsetInCU: 0x64, offset: 0x2599C, size: 0x8, addend: 0x0, symName: '__ZN3std4sync6poison4once4Once15call_once_force28_$u7b$$u7b$closure$u7d$$u7d$17h664ffe999535d5a1E', symObjAddr: 0x344, symBinAddr: 0x9AA4, symSize: 0x78 }
  - { offsetInCU: 0xF6, offset: 0x25A2E, size: 0x8, addend: 0x0, symName: '__ZN3std4sync6poison4once4Once15call_once_force28_$u7b$$u7b$closure$u7d$$u7d$17h6f1340cdd4647015E', symObjAddr: 0x3BC, symBinAddr: 0x9B1C, symSize: 0x78 }
  - { offsetInCU: 0x2E3, offset: 0x25C1B, size: 0x8, addend: 0x0, symName: '__ZN3std4sync6poison5mutex19MutexGuard$LT$T$GT$3new28_$u7b$$u7b$closure$u7d$$u7d$17h8f97443869537d6cE', symObjAddr: 0x4E0, symBinAddr: 0x9C40, symSize: 0x18 }
  - { offsetInCU: 0x332, offset: 0x25C6A, size: 0x8, addend: 0x0, symName: '__ZN87_$LT$std..sync..poison..mutex..MutexGuard$LT$T$GT$$u20$as$u20$core..ops..drop..Drop$GT$4drop17h2753f12f50dd782aE', symObjAddr: 0x24C8, symBinAddr: 0xA134, symSize: 0x68 }
  - { offsetInCU: 0x3B3, offset: 0x25CEB, size: 0x8, addend: 0x0, symName: '__ZN89_$LT$std..sync..poison..mutex..MutexGuard$LT$T$GT$$u20$as$u20$core..ops..deref..Deref$GT$5deref17h9009cbcef3da8373E', symObjAddr: 0x2530, symBinAddr: 0xA19C, symSize: 0x1C }
  - { offsetInCU: 0x405, offset: 0x25D3D, size: 0x8, addend: 0x0, symName: '__ZN92_$LT$std..sync..poison..mutex..MutexGuard$LT$T$GT$$u20$as$u20$core..ops..deref..DerefMut$GT$9deref_mut17h2222ff20480271a4E', symObjAddr: 0x25F8, symBinAddr: 0xA1E0, symSize: 0x1C }
  - { offsetInCU: 0x25CA, offset: 0x27F02, size: 0x8, addend: 0x0, symName: __ZN4core5slice3raw14from_raw_parts17h519015c261099bfaE, symObjAddr: 0xFFC, symBinAddr: 0x9EC0, symSize: 0x50 }
  - { offsetInCU: 0x2612, offset: 0x27F4A, size: 0x8, addend: 0x0, symName: __ZN4core5slice3raw14from_raw_parts18precondition_check17h1d08b038f5454005E, symObjAddr: 0x10EC, symBinAddr: 0x9F10, symSize: 0x168 }
  - { offsetInCU: 0x2C05, offset: 0x2853D, size: 0x8, addend: 0x0, symName: '__ZN77_$LT$alloc..raw_vec..RawVec$LT$T$C$A$GT$$u20$as$u20$core..ops..drop..Drop$GT$4drop17h595f97534f847c28E', symObjAddr: 0x23A0, symBinAddr: 0xA104, symSize: 0x30 }
  - { offsetInCU: 0x3448, offset: 0x28D80, size: 0x8, addend: 0x0, symName: __ZN8pyo3_ffi10modsupport15PyModule_Create17h053861e3912babddE, symObjAddr: 0x258C, symBinAddr: 0xA1B8, symSize: 0x28 }
  - { offsetInCU: 0x3A54, offset: 0x2938C, size: 0x8, addend: 0x0, symName: __ZN3std4sync6poison4once4Once15call_once_force17hc7dfbfb4c4fc6c7eE, symObjAddr: 0x15C, symBinAddr: 0x98BC, symSize: 0xF4 }
  - { offsetInCU: 0x3B17, offset: 0x2944F, size: 0x8, addend: 0x0, symName: __ZN3std4sync6poison4once4Once15call_once_force17hf66447872ea26680E, symObjAddr: 0x250, symBinAddr: 0x99B0, symSize: 0xF4 }
  - { offsetInCU: 0x3CD6, offset: 0x2960E, size: 0x8, addend: 0x0, symName: '__ZN3std4sync6poison5mutex14Mutex$LT$T$GT$3new17h3c173f34bcd0584bE', symObjAddr: 0x434, symBinAddr: 0x9B94, symSize: 0x60 }
  - { offsetInCU: 0x3DE7, offset: 0x2971F, size: 0x8, addend: 0x0, symName: '__ZN3std4sync6poison5mutex14Mutex$LT$T$GT$4lock17h7ff1ea0c322f3cfcE', symObjAddr: 0x494, symBinAddr: 0x9BF4, symSize: 0x4C }
  - { offsetInCU: 0x3F06, offset: 0x2983E, size: 0x8, addend: 0x0, symName: '__ZN3std6thread5local17LocalKey$LT$T$GT$8try_with17h089ae5d2fe665418E', symObjAddr: 0x668, symBinAddr: 0x9C58, symSize: 0xCC }
  - { offsetInCU: 0x407B, offset: 0x299B3, size: 0x8, addend: 0x0, symName: '__ZN3std6thread5local17LocalKey$LT$T$GT$8try_with17h0b7be5999871be8aE', symObjAddr: 0x734, symBinAddr: 0x9D24, symSize: 0xD0 }
  - { offsetInCU: 0x41F1, offset: 0x29B29, size: 0x8, addend: 0x0, symName: '__ZN3std6thread5local17LocalKey$LT$T$GT$8try_with17h994d35b183fa9c88E', symObjAddr: 0xB80, symBinAddr: 0x9DF4, symSize: 0xCC }
  - { offsetInCU: 0x44A0, offset: 0x29DD8, size: 0x8, addend: 0x0, symName: '__ZN5alloc7raw_vec19RawVec$LT$T$C$A$GT$8grow_one17hd4c9fec2e61216afE', symObjAddr: 0x18C0, symBinAddr: 0xA078, symSize: 0x8C }
  - { offsetInCU: 0x1BB, offset: 0x2A1C2, size: 0x8, addend: 0x0, symName: '__ZN4core3ptr8non_null16NonNull$LT$T$GT$13new_unchecked18precondition_check17h1479a17e75a2dd27E', symObjAddr: 0x193C, symBinAddr: 0xA33C, symSize: 0x38 }
  - { offsetInCU: 0x20C8, offset: 0x2C0CF, size: 0x8, addend: 0x0, symName: __ZN8pyo3_ffi10listobject12PyList_Check17h9e0c11c646fd951aE, symObjAddr: 0x1FB0, symBinAddr: 0xA438, symSize: 0x30 }
  - { offsetInCU: 0x2231, offset: 0x2C238, size: 0x8, addend: 0x0, symName: '__ZN3std3sys4sync5mutex7pthread5Mutex3get28_$u7b$$u7b$closure$u7d$$u7d$17hf99d630f828f59b8E', symObjAddr: 0x1120, symBinAddr: 0xA1FC, symSize: 0x10C }
  - { offsetInCU: 0x2FDA, offset: 0x2CFE1, size: 0x8, addend: 0x0, symName: '__ZN4pyo34sync8Interned3get28_$u7b$$u7b$closure$u7d$$u7d$17h978d6c41157e7961E', symObjAddr: 0x49C0, symBinAddr: 0xABB8, symSize: 0x34 }
  - { offsetInCU: 0x3026, offset: 0x2D02D, size: 0x8, addend: 0x0, symName: '__ZN4pyo34sync20GILOnceCell$LT$T$GT$11get_or_init28_$u7b$$u7b$closure$u7d$$u7d$17ha763d6e4f87e9920E', symObjAddr: 0x3200, symBinAddr: 0xA700, symSize: 0x2C }
  - { offsetInCU: 0x3065, offset: 0x2D06C, size: 0x8, addend: 0x0, symName: '__ZN4pyo34sync20GILOnceCell$LT$T$GT$11get_or_init28_$u7b$$u7b$closure$u7d$$u7d$17hcddf76d8a4e7e8a8E', symObjAddr: 0x322C, symBinAddr: 0xA72C, symSize: 0x3C }
  - { offsetInCU: 0x3208, offset: 0x2D20F, size: 0x8, addend: 0x0, symName: '__ZN4core3ptr8non_null16NonNull$LT$T$GT$13new_unchecked17hb480a15edd8d7efdE', symObjAddr: 0x1908, symBinAddr: 0xA308, symSize: 0x34 }
  - { offsetInCU: 0x3269, offset: 0x2D270, size: 0x8, addend: 0x0, symName: '__ZN4core3ptr8non_null16NonNull$LT$T$GT$20offset_from_unsigned17h3e6bec07c7b54969E', symObjAddr: 0x1AD0, symBinAddr: 0xA374, symSize: 0x74 }
  - { offsetInCU: 0x335B, offset: 0x2D362, size: 0x8, addend: 0x0, symName: '__ZN4core3ptr8non_null16NonNull$LT$T$GT$3new17h3a596de743422897E', symObjAddr: 0x1D88, symBinAddr: 0xA3E8, symSize: 0x50 }
  - { offsetInCU: 0x33C3, offset: 0x2D3CA, size: 0x8, addend: 0x0, symName: '__ZN4pyo34sync20GILOnceCell$LT$T$GT$3get17h48eb1618395d08b0E', symObjAddr: 0x2F68, symBinAddr: 0xA468, symSize: 0x48 }
  - { offsetInCU: 0x3421, offset: 0x2D428, size: 0x8, addend: 0x0, symName: '__ZN4pyo34sync20GILOnceCell$LT$T$GT$3get17h58d349c5e393fe45E', symObjAddr: 0x2FB0, symBinAddr: 0xA4B0, symSize: 0x48 }
  - { offsetInCU: 0x347F, offset: 0x2D486, size: 0x8, addend: 0x0, symName: '__ZN4pyo34sync20GILOnceCell$LT$T$GT$3get17he906eaf37cd48af5E', symObjAddr: 0x2FF8, symBinAddr: 0xA4F8, symSize: 0x48 }
  - { offsetInCU: 0x3513, offset: 0x2D51A, size: 0x8, addend: 0x0, symName: '__ZN4pyo34sync20GILOnceCell$LT$T$GT$11get_or_init17hc38b74adcbdafe56E', symObjAddr: 0x3040, symBinAddr: 0xA540, symSize: 0xE8 }
  - { offsetInCU: 0x35E4, offset: 0x2D5EB, size: 0x8, addend: 0x0, symName: '__ZN4pyo34sync20GILOnceCell$LT$T$GT$11get_or_init17hcc42a29012fd06efE', symObjAddr: 0x3128, symBinAddr: 0xA628, symSize: 0xD8 }
  - { offsetInCU: 0x36D0, offset: 0x2D6D7, size: 0x8, addend: 0x0, symName: '__ZN4pyo34sync20GILOnceCell$LT$T$GT$15get_or_try_init17h640836fb03bd847eE', symObjAddr: 0x341C, symBinAddr: 0xA768, symSize: 0xCC }
  - { offsetInCU: 0x3775, offset: 0x2D77C, size: 0x8, addend: 0x0, symName: '__ZN4pyo34sync20GILOnceCell$LT$T$GT$4init17h19635521172ad80eE', symObjAddr: 0x3678, symBinAddr: 0x49F50, symSize: 0x11C }
  - { offsetInCU: 0x3854, offset: 0x2D85B, size: 0x8, addend: 0x0, symName: '__ZN4pyo34sync20GILOnceCell$LT$T$GT$4init17h315eeb73454838c7E', symObjAddr: 0x38C4, symBinAddr: 0x4A06C, symSize: 0x114 }
  - { offsetInCU: 0x3933, offset: 0x2D93A, size: 0x8, addend: 0x0, symName: '__ZN4pyo34sync20GILOnceCell$LT$T$GT$4init17h49d816e7f38ba55eE', symObjAddr: 0x39D8, symBinAddr: 0x4A180, symSize: 0x17C }
  - { offsetInCU: 0x3A3D, offset: 0x2DA44, size: 0x8, addend: 0x0, symName: '__ZN4pyo34sync20GILOnceCell$LT$T$GT$3set17h066bd96c52f93420E', symObjAddr: 0x40E0, symBinAddr: 0xA834, symSize: 0x114 }
  - { offsetInCU: 0x3AF7, offset: 0x2DAFE, size: 0x8, addend: 0x0, symName: '__ZN4pyo34sync20GILOnceCell$LT$T$GT$3set17hb5fc406bf026f010E', symObjAddr: 0x42D8, symBinAddr: 0xA948, symSize: 0x114 }
  - { offsetInCU: 0x3BB1, offset: 0x2DBB8, size: 0x8, addend: 0x0, symName: '__ZN4pyo34sync20GILOnceCell$LT$T$GT$3set17hdbfe9e88194422e0E', symObjAddr: 0x43EC, symBinAddr: 0xAA5C, symSize: 0x114 }
  - { offsetInCU: 0x3C4F, offset: 0x2DC56, size: 0x8, addend: 0x0, symName: __ZN4pyo34sync8Interned3get17hcaea06b95e575fc1E, symObjAddr: 0x4978, symBinAddr: 0xAB70, symSize: 0x48 }
  - { offsetInCU: 0x726, offset: 0x2E3E1, size: 0x8, addend: 0x0, symName: '__ZN4core3str21_$LT$impl$u20$str$GT$3len17h2cdd9ac10e4fa215E', symObjAddr: 0x2D4, symBinAddr: 0xABEC, symSize: 0x1C }
  - { offsetInCU: 0x1F75, offset: 0x2FC30, size: 0x8, addend: 0x0, symName: '__ZN4pyo33err5PyErr3new28_$u7b$$u7b$closure$u7d$$u7d$17ha24305aa9708a394E', symObjAddr: 0x37D0, symBinAddr: 0xB278, symSize: 0xC0 }
  - { offsetInCU: 0x1FCD, offset: 0x2FC88, size: 0x8, addend: 0x0, symName: '__ZN4pyo33err5PyErr3new28_$u7b$$u7b$closure$u7d$$u7d$17hb9bb8578c5c18519E', symObjAddr: 0x3ADC, symBinAddr: 0xB338, symSize: 0xC0 }
  - { offsetInCU: 0x2025, offset: 0x2FCE0, size: 0x8, addend: 0x0, symName: '__ZN4pyo33err5PyErr3new28_$u7b$$u7b$closure$u7d$$u7d$17he1085108db6f9662E', symObjAddr: 0x3EC8, symBinAddr: 0xB3F8, symSize: 0xD4 }
  - { offsetInCU: 0x207E, offset: 0x2FD39, size: 0x8, addend: 0x0, symName: '__ZN4pyo33err5PyErr3new28_$u7b$$u7b$closure$u7d$$u7d$17hf675e0afca913a3aE', symObjAddr: 0x429C, symBinAddr: 0xB4CC, symSize: 0xD4 }
  - { offsetInCU: 0x20DD, offset: 0x2FD98, size: 0x8, addend: 0x0, symName: '__ZN4pyo33err5PyErr5_take28_$u7b$$u7b$closure$u7d$$u7d$17h54e862143440d531E', symObjAddr: 0x49CC, symBinAddr: 0xB838, symSize: 0x7C }
  - { offsetInCU: 0x2116, offset: 0x2FDD1, size: 0x8, addend: 0x0, symName: '__ZN4pyo33err5PyErr5_take28_$u7b$$u7b$closure$u7d$$u7d$17h31639ea80ccf4f49E', symObjAddr: 0x4A48, symBinAddr: 0xB8B4, symSize: 0x64 }
  - { offsetInCU: 0x2160, offset: 0x2FE1B, size: 0x8, addend: 0x0, symName: '__ZN4pyo33err5PyErr14new_type_bound28_$u7b$$u7b$closure$u7d$$u7d$17h1cf147035cbf3d76E', symObjAddr: 0x4F60, symBinAddr: 0xBDCC, symSize: 0x50 }
  - { offsetInCU: 0x21A6, offset: 0x2FE61, size: 0x8, addend: 0x0, symName: __ZN4pyo33err5PyErr5fetch18panic_cold_display17h4229ed50a20532e3E, symObjAddr: 0x7B80, symBinAddr: 0x4A4D0, symSize: 0x18 }
  - { offsetInCU: 0x2C5C, offset: 0x30917, size: 0x8, addend: 0x0, symName: '__ZN53_$LT$pyo3..err..PyErr$u20$as$u20$core..fmt..Debug$GT$3fmt17hb573b5f7a75d61afE', symObjAddr: 0x616C, symBinAddr: 0xC0C0, symSize: 0x38 }
  - { offsetInCU: 0x2C9E, offset: 0x30959, size: 0x8, addend: 0x0, symName: '__ZN53_$LT$pyo3..err..PyErr$u20$as$u20$core..fmt..Debug$GT$3fmt28_$u7b$$u7b$closure$u7d$$u7d$17hc77434a28ce77bd9E', symObjAddr: 0x61A4, symBinAddr: 0xC0F8, symSize: 0x168 }
  - { offsetInCU: 0x2D03, offset: 0x309BE, size: 0x8, addend: 0x0, symName: '__ZN92_$LT$pyo3..err..PyDowncastErrorArguments$u20$as$u20$pyo3..err..err_state..PyErrArguments$GT$9arguments17hc6cbb2dea608ece6E', symObjAddr: 0x6790, symBinAddr: 0xC260, symSize: 0x218 }
  - { offsetInCU: 0x2DB7, offset: 0x30A72, size: 0x8, addend: 0x0, symName: '__ZN92_$LT$pyo3..err..PyErr$u20$as$u20$core..convert..From$LT$pyo3..err..DowncastIntoError$GT$$GT$4from17hb367309efb31e53eE', symObjAddr: 0x6B04, symBinAddr: 0xC478, symSize: 0xE4 }
  - { offsetInCU: 0x2E05, offset: 0x30AC0, size: 0x8, addend: 0x0, symName: __ZN4pyo33err17panic_after_error17h5a3f623ec082a7a0E, symObjAddr: 0x6DC4, symBinAddr: 0xC55C, symSize: 0x34 }
  - { offsetInCU: 0x2E3B, offset: 0x30AF6, size: 0x8, addend: 0x0, symName: __ZN4pyo33err17error_on_minusone17h328ed87322862863E, symObjAddr: 0x6DF8, symBinAddr: 0xC590, symSize: 0xC0 }
  - { offsetInCU: 0x2E8D, offset: 0x30B48, size: 0x8, addend: 0x0, symName: __ZN4pyo33err17error_on_minusone17hec0ac136088ebf5fE, symObjAddr: 0x6F78, symBinAddr: 0xC650, symSize: 0xC0 }
  - { offsetInCU: 0x444A, offset: 0x32105, size: 0x8, addend: 0x0, symName: '__ZN4core4cell13Cell$LT$T$GT$3get17h0e353f670a4a85c9E', symObjAddr: 0x544, symBinAddr: 0xAC08, symSize: 0x18 }
  - { offsetInCU: 0x449E, offset: 0x32159, size: 0x8, addend: 0x0, symName: '__ZN4core4cell13Cell$LT$T$GT$3set17h7b8c74a90efd554fE', symObjAddr: 0x574, symBinAddr: 0xAC20, symSize: 0x1C }
  - { offsetInCU: 0x45B5, offset: 0x32270, size: 0x8, addend: 0x0, symName: '__ZN4core4cell13Cell$LT$T$GT$4take17h04b3f2bd0bd438d5E', symObjAddr: 0x5AC, symBinAddr: 0xAC3C, symSize: 0x3C }
  - { offsetInCU: 0x4694, offset: 0x3234F, size: 0x8, addend: 0x0, symName: '__ZN78_$LT$once_cell..sync..Lazy$LT$T$C$F$GT$$u20$as$u20$core..ops..deref..Deref$GT$5deref17h0b8b621fce5bd492E', symObjAddr: 0xD98, symBinAddr: 0xAC78, symSize: 0x24 }
  - { offsetInCU: 0x4821, offset: 0x324DC, size: 0x8, addend: 0x0, symName: '__ZN9once_cell4sync17Lazy$LT$T$C$F$GT$5force28_$u7b$$u7b$closure$u7d$$u7d$17ha81e09669047406fE', symObjAddr: 0xF24, symBinAddr: 0xACEC, symSize: 0x78 }
  - { offsetInCU: 0x48A0, offset: 0x3255B, size: 0x8, addend: 0x0, symName: '__ZN9once_cell4sync17OnceCell$LT$T$GT$11get_or_init28_$u7b$$u7b$closure$u7d$$u7d$17h7d03f24f54d63430E', symObjAddr: 0xFD4, symBinAddr: 0xAD9C, symSize: 0x44 }
  - { offsetInCU: 0x4993, offset: 0x3264E, size: 0x8, addend: 0x0, symName: '__ZN9once_cell4sync17Lazy$LT$T$C$F$GT$3get17hd6849ad740ac1fa7E', symObjAddr: 0xED4, symBinAddr: 0xAC9C, symSize: 0x24 }
  - { offsetInCU: 0x49C8, offset: 0x32683, size: 0x8, addend: 0x0, symName: '__ZN9once_cell4sync17Lazy$LT$T$C$F$GT$5force17he6cf6a68b560953fE', symObjAddr: 0xEF8, symBinAddr: 0xACC0, symSize: 0x2C }
  - { offsetInCU: 0x4A0A, offset: 0x326C5, size: 0x8, addend: 0x0, symName: '__ZN9once_cell4sync17OnceCell$LT$T$GT$11get_or_init17h3ca87bed1e60bfa3E', symObjAddr: 0xF9C, symBinAddr: 0xAD64, symSize: 0x38 }
  - { offsetInCU: 0x4A4E, offset: 0x32709, size: 0x8, addend: 0x0, symName: '__ZN9once_cell4sync17OnceCell$LT$T$GT$13get_unchecked17hc8186c786727d1f4E', symObjAddr: 0x1018, symBinAddr: 0xADE0, symSize: 0x24 }
  - { offsetInCU: 0x4A7A, offset: 0x32735, size: 0x8, addend: 0x0, symName: '__ZN9once_cell4sync17OnceCell$LT$T$GT$15get_or_try_init17hfa6871485d890906E', symObjAddr: 0x103C, symBinAddr: 0xAE04, symSize: 0x128 }
  - { offsetInCU: 0x4ADD, offset: 0x32798, size: 0x8, addend: 0x0, symName: '__ZN9once_cell4sync17OnceCell$LT$T$GT$3get17hb1c870a78c759b94E', symObjAddr: 0x1164, symBinAddr: 0xAF2C, symSize: 0x4C }
  - { offsetInCU: 0x4B16, offset: 0x327D1, size: 0x8, addend: 0x0, symName: __ZN4pyo33err17DowncastIntoError3new17h1593a6e5568f110eE, symObjAddr: 0x1700, symBinAddr: 0xAF78, symSize: 0x98 }
  - { offsetInCU: 0x4B5C, offset: 0x32817, size: 0x8, addend: 0x0, symName: __ZN4pyo33err5PyErr3new17h072f2ad592e2103fE, symObjAddr: 0x1828, symBinAddr: 0xB010, symSize: 0x9C }
  - { offsetInCU: 0x4BBB, offset: 0x32876, size: 0x8, addend: 0x0, symName: __ZN4pyo33err5PyErr3new17h2596e110963f835bE, symObjAddr: 0x1A4C, symBinAddr: 0xB0AC, symSize: 0x98 }
  - { offsetInCU: 0x4C19, offset: 0x328D4, size: 0x8, addend: 0x0, symName: __ZN4pyo33err5PyErr3new17h3f5fac8e8f53d631E, symObjAddr: 0x1CF0, symBinAddr: 0xB144, symSize: 0x9C }
  - { offsetInCU: 0x4C78, offset: 0x32933, size: 0x8, addend: 0x0, symName: __ZN4pyo33err5PyErr3new17hd2d153d387f7062bE, symObjAddr: 0x2794, symBinAddr: 0xB1E0, symSize: 0x98 }
  - { offsetInCU: 0x4CC9, offset: 0x32984, size: 0x8, addend: 0x0, symName: __ZN4pyo33err5PyErr14get_type_bound17h35a15b1d546a8a9fE, symObjAddr: 0x45CC, symBinAddr: 0xB5A0, symSize: 0x28 }
  - { offsetInCU: 0x4D14, offset: 0x329CF, size: 0x8, addend: 0x0, symName: __ZN4pyo33err5PyErr11value_bound17h87f36f6383129631E, symObjAddr: 0x45F4, symBinAddr: 0xB5C8, symSize: 0x28 }
  - { offsetInCU: 0x4D52, offset: 0x32A0D, size: 0x8, addend: 0x0, symName: __ZN4pyo33err5PyErr15traceback_bound17hf4d3ad1d1f9b9f9eE, symObjAddr: 0x4784, symBinAddr: 0xB5F0, symSize: 0x28 }
  - { offsetInCU: 0x4D90, offset: 0x32A4B, size: 0x8, addend: 0x0, symName: __ZN4pyo33err5PyErr4take17he5ed4d9c707e44c7E, symObjAddr: 0x47AC, symBinAddr: 0xB618, symSize: 0x1C }
  - { offsetInCU: 0x4DBF, offset: 0x32A7A, size: 0x8, addend: 0x0, symName: __ZN4pyo33err5PyErr5_take17hd6089c79ac5f7daaE, symObjAddr: 0x47C8, symBinAddr: 0xB634, symSize: 0x204 }
  - { offsetInCU: 0x4EA0, offset: 0x32B5B, size: 0x8, addend: 0x0, symName: __ZN4pyo33err5PyErr22print_panic_and_unwind17hacee0f029a149d3dE, symObjAddr: 0x4AAC, symBinAddr: 0xB918, symSize: 0x180 }
  - { offsetInCU: 0x4F0D, offset: 0x32BC8, size: 0x8, addend: 0x0, symName: __ZN4pyo33err5PyErr5fetch17h09534dea1075201cE, symObjAddr: 0x4C2C, symBinAddr: 0xBA98, symSize: 0x5C }
  - { offsetInCU: 0x4F49, offset: 0x32C04, size: 0x8, addend: 0x0, symName: __ZN4pyo33err5PyErr14new_type_bound17hb266d2e26ea0aabdE, symObjAddr: 0x4C88, symBinAddr: 0xBAF4, symSize: 0x2D8 }
  - { offsetInCU: 0x50CC, offset: 0x32D87, size: 0x8, addend: 0x0, symName: __ZN4pyo33err5PyErr17is_instance_bound17h4b228f318855d0a9E, symObjAddr: 0x5054, symBinAddr: 0xBE1C, symSize: 0xA0 }
  - { offsetInCU: 0x512F, offset: 0x32DEA, size: 0x8, addend: 0x0, symName: __ZN4pyo33err5PyErr14is_instance_of17hb4db57b755ff156fE, symObjAddr: 0x540C, symBinAddr: 0xBEBC, symSize: 0x84 }
  - { offsetInCU: 0x5192, offset: 0x32E4D, size: 0x8, addend: 0x0, symName: __ZN4pyo33err5PyErr7restore17ha17d6fb60a6605ebE, symObjAddr: 0x56A0, symBinAddr: 0xBF40, symSize: 0x68 }
  - { offsetInCU: 0x51EF, offset: 0x32EAA, size: 0x8, addend: 0x0, symName: __ZN4pyo33err5PyErr22write_unraisable_bound17h1257b76d3ad5e02fE, symObjAddr: 0x5708, symBinAddr: 0xBFA8, symSize: 0x34 }
  - { offsetInCU: 0x5259, offset: 0x32F14, size: 0x8, addend: 0x0, symName: __ZN4pyo33err5PyErr10from_state17h8fb03a50c63684acE, symObjAddr: 0x5EB4, symBinAddr: 0xBFDC, symSize: 0x44 }
  - { offsetInCU: 0x52A7, offset: 0x32F62, size: 0x8, addend: 0x0, symName: __ZN4pyo33err5PyErr10normalized17h977b5133ea0c3420E, symObjAddr: 0x5EF8, symBinAddr: 0xC020, symSize: 0xA0 }
  - { offsetInCU: 0x5331, offset: 0x32FEC, size: 0x8, addend: 0x0, symName: __ZN4pyo33err5PyErr15make_normalized17hbb7b5c3bd846336bE, symObjAddr: 0x5F98, symBinAddr: 0x4A2FC, symSize: 0x1D4 }
  - { offsetInCU: 0x423, offset: 0x334E6, size: 0x8, addend: 0x0, symName: '__ZN4core3ptr7mut_ptr31_$LT$impl$u20$$BP$mut$u20$T$GT$6offset18precondition_check17hf05e9ec44ff0d9a8E', symObjAddr: 0xF98, symBinAddr: 0xCC5C, symSize: 0xA0 }
  - { offsetInCU: 0x696, offset: 0x33759, size: 0x8, addend: 0x0, symName: '__ZN4core3ptr9const_ptr33_$LT$impl$u20$$BP$const$u20$T$GT$20offset_from_unsigned18precondition_check17h321ba62fe3f1dd31E', symObjAddr: 0x1038, symBinAddr: 0xCCFC, symSize: 0x40 }
  - { offsetInCU: 0x6CD, offset: 0x33790, size: 0x8, addend: 0x0, symName: '__ZN4core3ptr9const_ptr33_$LT$impl$u20$$BP$const$u20$T$GT$7is_null17h5dbf2629aecebed6E', symObjAddr: 0x1118, symBinAddr: 0xCD3C, symSize: 0x18 }
  - { offsetInCU: 0x1566, offset: 0x34629, size: 0x8, addend: 0x0, symName: '__ZN145_$LT$core..option..Option$LT$T$GT$$u20$as$u20$core..ops..try_trait..FromResidual$LT$core..option..Option$LT$core..convert..Infallible$GT$$GT$$GT$13from_residual17h68c32a0c036fdbfcE', symObjAddr: 0x328, symBinAddr: 0xC710, symSize: 0x10 }
  - { offsetInCU: 0x2A5D, offset: 0x35B20, size: 0x8, addend: 0x0, symName: '__ZN66_$LT$core..option..Option$LT$T$GT$$u20$as$u20$core..fmt..Debug$GT$3fmt17hd6f870de030d5a17E', symObjAddr: 0x2BE0, symBinAddr: 0xD5F0, symSize: 0x9C }
  - { offsetInCU: 0x2AC7, offset: 0x35B8A, size: 0x8, addend: 0x0, symName: '__ZN72_$LT$core..option..Option$LT$T$GT$$u20$as$u20$core..default..Default$GT$7default17h2dc17e400ad3626cE', symObjAddr: 0x302C, symBinAddr: 0xD68C, symSize: 0x14 }
  - { offsetInCU: 0x2AF5, offset: 0x35BB8, size: 0x8, addend: 0x0, symName: '__ZN75_$LT$core..option..Option$LT$T$GT$$u20$as$u20$core..ops..try_trait..Try$GT$6branch17hf5241e0632e595a3E', symObjAddr: 0x3168, symBinAddr: 0xD6A0, symSize: 0x40 }
  - { offsetInCU: 0x33E7, offset: 0x364AA, size: 0x8, addend: 0x0, symName: __ZN4core10intrinsics19copy_nonoverlapping18precondition_check17h895fc581470ea045E, symObjAddr: 0xAA8, symBinAddr: 0xC978, symSize: 0x2E4 }
  - { offsetInCU: 0x3726, offset: 0x367E9, size: 0x8, addend: 0x0, symName: '__ZN31_$LT$dyn$u20$core..any..Any$GT$2is17hba5c9aa41f151d17E', symObjAddr: 0x338, symBinAddr: 0xC720, symSize: 0x12C }
  - { offsetInCU: 0x3887, offset: 0x3694A, size: 0x8, addend: 0x0, symName: '__ZN31_$LT$dyn$u20$core..any..Any$GT$2is17hecd67e5b1e77565eE', symObjAddr: 0x464, symBinAddr: 0xC84C, symSize: 0x12C }
  - { offsetInCU: 0x3A38, offset: 0x36AFB, size: 0x8, addend: 0x0, symName: '__ZN54_$LT$dyn$u20$core..any..Any$u2b$core..marker..Send$GT$12downcast_ref17h984e0032d152fa45E', symObjAddr: 0x28E8, symBinAddr: 0xD530, symSize: 0x60 }
  - { offsetInCU: 0x3A8D, offset: 0x36B50, size: 0x8, addend: 0x0, symName: '__ZN54_$LT$dyn$u20$core..any..Any$u2b$core..marker..Send$GT$12downcast_ref17he07a1f5acc9c3acbE', symObjAddr: 0x2948, symBinAddr: 0xD590, symSize: 0x60 }
  - { offsetInCU: 0x4794, offset: 0x37857, size: 0x8, addend: 0x0, symName: '__ZN71_$LT$pyo3..impl_..panic..PanicTrap$u20$as$u20$core..ops..drop..Drop$GT$4drop17h33284e101a56d7e5E', symObjAddr: 0x36F4, symBinAddr: 0xD7BC, symSize: 0x20 }
  - { offsetInCU: 0x47C1, offset: 0x37884, size: 0x8, addend: 0x0, symName: '__ZN71_$LT$pyo3..impl_..panic..PanicTrap$u20$as$u20$core..ops..drop..Drop$GT$4drop18panic_cold_display17h82a1522b6fc6f479E', symObjAddr: 0x59D4, symBinAddr: 0x4A4E8, symSize: 0x18 }
  - { offsetInCU: 0x488B, offset: 0x3794E, size: 0x8, addend: 0x0, symName: '__ZN4pyo35impl_8pymodule9ModuleDef11make_module28_$u7b$$u7b$closure$u7d$$u7d$17hf8b4725f3056f676E', symObjAddr: 0x39E4, symBinAddr: 0xD944, symSize: 0x15C }
  - { offsetInCU: 0x4938, offset: 0x379FB, size: 0x8, addend: 0x0, symName: '__ZN4pyo35impl_8pymodule9ModuleDef11make_module28_$u7b$$u7b$closure$u7d$$u7d$17h49eb80a347bb309aE', symObjAddr: 0x3B40, symBinAddr: 0xDAA0, symSize: 0x30 }
  - { offsetInCU: 0x4B43, offset: 0x37C06, size: 0x8, addend: 0x0, symName: __ZN4pyo315internal_tricks12ptr_from_ref17h1268735a95e1141fE, symObjAddr: 0x322C, symBinAddr: 0xD6E0, symSize: 0x14 }
  - { offsetInCU: 0x4B78, offset: 0x37C3B, size: 0x8, addend: 0x0, symName: __ZN4pyo315internal_tricks12ptr_from_ref17h135fbd7820c18203E, symObjAddr: 0x3240, symBinAddr: 0xD6F4, symSize: 0x14 }
  - { offsetInCU: 0x4BAD, offset: 0x37C70, size: 0x8, addend: 0x0, symName: __ZN4pyo315internal_tricks12ptr_from_ref17h2eb800359428b517E, symObjAddr: 0x3268, symBinAddr: 0xD708, symSize: 0x14 }
  - { offsetInCU: 0x4BE2, offset: 0x37CA5, size: 0x8, addend: 0x0, symName: __ZN4pyo315internal_tricks12ptr_from_ref17h495fe0c5d890aadbE, symObjAddr: 0x327C, symBinAddr: 0xD71C, symSize: 0x14 }
  - { offsetInCU: 0x4C17, offset: 0x37CDA, size: 0x8, addend: 0x0, symName: __ZN4pyo315internal_tricks12ptr_from_ref17h956907b217a2e866E, symObjAddr: 0x32B8, symBinAddr: 0xD730, symSize: 0x14 }
  - { offsetInCU: 0x4C4C, offset: 0x37D0F, size: 0x8, addend: 0x0, symName: __ZN4pyo315internal_tricks12ptr_from_ref17h9c6e6ac9d3e18417E, symObjAddr: 0x32F4, symBinAddr: 0xD744, symSize: 0x14 }
  - { offsetInCU: 0x4C81, offset: 0x37D44, size: 0x8, addend: 0x0, symName: __ZN4pyo315internal_tricks12ptr_from_ref17hbba2cc99f31f7fd8E, symObjAddr: 0x331C, symBinAddr: 0xD758, symSize: 0x14 }
  - { offsetInCU: 0x4CB6, offset: 0x37D79, size: 0x8, addend: 0x0, symName: __ZN4pyo315internal_tricks12ptr_from_ref17hdbbc7b69a6563d07E, symObjAddr: 0x3380, symBinAddr: 0xD76C, symSize: 0x14 }
  - { offsetInCU: 0x4CEB, offset: 0x37DAE, size: 0x8, addend: 0x0, symName: __ZN4pyo315internal_tricks12ptr_from_ref17hf0298516a77b465dE, symObjAddr: 0x3394, symBinAddr: 0xD780, symSize: 0x14 }
  - { offsetInCU: 0x4D20, offset: 0x37DE3, size: 0x8, addend: 0x0, symName: __ZN4pyo315internal_tricks12ptr_from_ref17hfadbdc372734d36cE, symObjAddr: 0x33A8, symBinAddr: 0xD794, symSize: 0x14 }
  - { offsetInCU: 0x4D55, offset: 0x37E18, size: 0x8, addend: 0x0, symName: __ZN4pyo315internal_tricks12ptr_from_ref17hfdcb4cca5b0c19bfE, symObjAddr: 0x33BC, symBinAddr: 0xD7A8, symSize: 0x14 }
  - { offsetInCU: 0x604D, offset: 0x39110, size: 0x8, addend: 0x0, symName: '__ZN4core6option15Option$LT$T$GT$11map_or_else17h07c20fa9d886bfb2E', symObjAddr: 0x1310, symBinAddr: 0xCD54, symSize: 0xCC }
  - { offsetInCU: 0x627F, offset: 0x39342, size: 0x8, addend: 0x0, symName: '__ZN4core6option15Option$LT$T$GT$16unwrap_unchecked17h11a9ec5bd1c8ed35E', symObjAddr: 0x1638, symBinAddr: 0xCE20, symSize: 0x44 }
  - { offsetInCU: 0x62CD, offset: 0x39390, size: 0x8, addend: 0x0, symName: '__ZN4core6option15Option$LT$T$GT$16unwrap_unchecked17hacf6f3e43eb4b596E', symObjAddr: 0x167C, symBinAddr: 0xCE64, symSize: 0x44 }
  - { offsetInCU: 0x632C, offset: 0x393EF, size: 0x8, addend: 0x0, symName: '__ZN4core6option15Option$LT$T$GT$3map17h03b929f3b9f5f3c0E', symObjAddr: 0x1724, symBinAddr: 0xCEA8, symSize: 0x50 }
  - { offsetInCU: 0x63AF, offset: 0x39472, size: 0x8, addend: 0x0, symName: '__ZN4core6option15Option$LT$T$GT$3map17h393e4ea673f0cd1eE', symObjAddr: 0x17F8, symBinAddr: 0xCEF8, symSize: 0x50 }
  - { offsetInCU: 0x646F, offset: 0x39532, size: 0x8, addend: 0x0, symName: '__ZN4core6option15Option$LT$T$GT$3map17h8c9dd63c0a31b7a6E', symObjAddr: 0x1984, symBinAddr: 0xCF48, symSize: 0x50 }
  - { offsetInCU: 0x64F2, offset: 0x395B5, size: 0x8, addend: 0x0, symName: '__ZN4core6option15Option$LT$T$GT$3map17h9bfb7e545248a0d8E', symObjAddr: 0x1A4C, symBinAddr: 0xCF98, symSize: 0x5C }
  - { offsetInCU: 0x655D, offset: 0x39620, size: 0x8, addend: 0x0, symName: '__ZN4core6option15Option$LT$T$GT$3map17ha0801eb2756ea87dE', symObjAddr: 0x1AA8, symBinAddr: 0xCFF4, symSize: 0x64 }
  - { offsetInCU: 0x65C8, offset: 0x3968B, size: 0x8, addend: 0x0, symName: '__ZN4core6option15Option$LT$T$GT$3map17hc5185dcf21f1caffE', symObjAddr: 0x1B0C, symBinAddr: 0xD058, symSize: 0x50 }
  - { offsetInCU: 0x6665, offset: 0x39728, size: 0x8, addend: 0x0, symName: '__ZN4core6option15Option$LT$T$GT$4take17h7925a6a0be7a2b66E', symObjAddr: 0x1CF8, symBinAddr: 0xD0A8, symSize: 0x28 }
  - { offsetInCU: 0x66BC, offset: 0x3977F, size: 0x8, addend: 0x0, symName: '__ZN4core6option15Option$LT$T$GT$4take17hd906b5027d7ceecdE', symObjAddr: 0x1D20, symBinAddr: 0xD0D0, symSize: 0x3C }
  - { offsetInCU: 0x6720, offset: 0x397E3, size: 0x8, addend: 0x0, symName: '__ZN4core6option15Option$LT$T$GT$6as_ref17h0546b87c9c2460a2E', symObjAddr: 0x1DDC, symBinAddr: 0xD10C, symSize: 0x4C }
  - { offsetInCU: 0x679E, offset: 0x39861, size: 0x8, addend: 0x0, symName: '__ZN4core6option15Option$LT$T$GT$6as_ref17h6fd54c2d13aa8048E', symObjAddr: 0x1F08, symBinAddr: 0xD158, symSize: 0x4C }
  - { offsetInCU: 0x67F5, offset: 0x398B8, size: 0x8, addend: 0x0, symName: '__ZN4core6option15Option$LT$T$GT$6as_ref17h7c442914bd6037abE', symObjAddr: 0x1F54, symBinAddr: 0xD1A4, symSize: 0x48 }
  - { offsetInCU: 0x6859, offset: 0x3991C, size: 0x8, addend: 0x0, symName: '__ZN4core6option15Option$LT$T$GT$6as_ref17h859b8f9703106265E', symObjAddr: 0x1F9C, symBinAddr: 0xD1EC, symSize: 0x4C }
  - { offsetInCU: 0x68BD, offset: 0x39980, size: 0x8, addend: 0x0, symName: '__ZN4core6option15Option$LT$T$GT$6as_ref17hc4231d979b5541a2E', symObjAddr: 0x1FE8, symBinAddr: 0xD238, symSize: 0x4C }
  - { offsetInCU: 0x6907, offset: 0x399CA, size: 0x8, addend: 0x0, symName: '__ZN4core6option15Option$LT$T$GT$6expect17h57ed44e8f15303d4E', symObjAddr: 0x2084, symBinAddr: 0xD284, symSize: 0x60 }
  - { offsetInCU: 0x6943, offset: 0x39A06, size: 0x8, addend: 0x0, symName: '__ZN4core6option15Option$LT$T$GT$6expect17h6f975748063c18fdE', symObjAddr: 0x20E4, symBinAddr: 0xD2E4, symSize: 0x5C }
  - { offsetInCU: 0x6996, offset: 0x39A59, size: 0x8, addend: 0x0, symName: '__ZN4core6option15Option$LT$T$GT$6map_or17h94936208347a7bb1E', symObjAddr: 0x2140, symBinAddr: 0xD340, symSize: 0xA8 }
  - { offsetInCU: 0x6A47, offset: 0x39B0A, size: 0x8, addend: 0x0, symName: '__ZN4core6option15Option$LT$T$GT$6map_or17ha24c50410df97bfcE', symObjAddr: 0x2354, symBinAddr: 0xD3E8, symSize: 0xA8 }
  - { offsetInCU: 0x6ADE, offset: 0x39BA1, size: 0x8, addend: 0x0, symName: '__ZN4core6option15Option$LT$T$GT$7is_some17h2d574f4e76723733E', symObjAddr: 0x2568, symBinAddr: 0xD490, symSize: 0x28 }
  - { offsetInCU: 0x6B0A, offset: 0x39BCD, size: 0x8, addend: 0x0, symName: '__ZN4core6option15Option$LT$T$GT$7is_some17h5d2db2abfa5932a4E', symObjAddr: 0x25E4, symBinAddr: 0xD4B8, symSize: 0x28 }
  - { offsetInCU: 0x6B36, offset: 0x39BF9, size: 0x8, addend: 0x0, symName: '__ZN4core6option15Option$LT$T$GT$7is_some17h97ca2205c8b73e3aE', symObjAddr: 0x2634, symBinAddr: 0xD4E0, symSize: 0x28 }
  - { offsetInCU: 0x6B62, offset: 0x39C25, size: 0x8, addend: 0x0, symName: '__ZN4core6option15Option$LT$T$GT$7is_some17hf5f26d2f750ea64bE', symObjAddr: 0x265C, symBinAddr: 0xD508, symSize: 0x28 }
  - { offsetInCU: 0x6C55, offset: 0x39D18, size: 0x8, addend: 0x0, symName: __ZN4pyo35impl_8pymodule9ModuleDef11make_module17hf88b5243b5e0f869E, symObjAddr: 0x387C, symBinAddr: 0xD7DC, symSize: 0x168 }
  - { offsetInCU: 0x6CFF, offset: 0x39DC2, size: 0x8, addend: 0x0, symName: __ZN4pyo36marker6Python8with_gil17he1af68241dc369c8E, symObjAddr: 0x3E40, symBinAddr: 0xDAD0, symSize: 0xE8 }
  - { offsetInCU: 0x6D4A, offset: 0x39E0D, size: 0x8, addend: 0x0, symName: __ZN4pyo36marker6Python14get_type_bound17h331441424c3dd20bE, symObjAddr: 0x4730, symBinAddr: 0xDBB8, symSize: 0x1C }
  - { offsetInCU: 0x6D8F, offset: 0x39E52, size: 0x8, addend: 0x0, symName: __ZN4pyo36marker6Python19assume_gil_acquired17h0e1d252bb03356beE, symObjAddr: 0x492C, symBinAddr: 0xDBD4, symSize: 0x4 }
  - { offsetInCU: 0xF22, offset: 0x3AEBA, size: 0x8, addend: 0x0, symName: __ZN4core3str8converts19from_utf8_unchecked17h03b8e77ae4abf877E, symObjAddr: 0xAFC, symBinAddr: 0xDCDC, symSize: 0x18 }
  - { offsetInCU: 0xF64, offset: 0x3AEFC, size: 0x8, addend: 0x0, symName: '__ZN110_$LT$core..iter..adapters..enumerate..Enumerate$LT$I$GT$$u20$as$u20$core..iter..traits..iterator..Iterator$GT$4next17hea4094b2197d57f8E', symObjAddr: 0x1CC, symBinAddr: 0xDBD8, symSize: 0xEC }
  - { offsetInCU: 0x1082, offset: 0x3B01A, size: 0x8, addend: 0x0, symName: '__ZN63_$LT$I$u20$as$u20$core..iter..traits..collect..IntoIterator$GT$9into_iter17h891769d3937acee8E', symObjAddr: 0x1000, symBinAddr: 0xDDCC, symSize: 0x14 }
  - { offsetInCU: 0x14D3, offset: 0x3B46B, size: 0x8, addend: 0x0, symName: __ZN4core9ub_checks23maybe_is_nonoverlapping7runtime17h9a1cc4c65cfb50fbE, symObjAddr: 0xEC8, symBinAddr: 0xDCF4, symSize: 0xD8 }
  - { offsetInCU: 0x1A41, offset: 0x3B9D9, size: 0x8, addend: 0x0, symName: __ZN4pyo35types5tuple16array_into_tuple17h85971f54a3a70870E, symObjAddr: 0x685C, symBinAddr: 0xE204, symSize: 0x1F0 }
  - { offsetInCU: 0x1AFC, offset: 0x3BA94, size: 0x8, addend: 0x0, symName: '__ZN4pyo35types5tuple125_$LT$impl$u20$pyo3..conversion..IntoPy$LT$pyo3..instance..Py$LT$pyo3..types..any..PyAny$GT$$GT$$u20$for$u20$$LP$T0$C$$RP$$GT$7into_py17h1c137a934a47a141E', symObjAddr: 0x6E84, symBinAddr: 0xE424, symSize: 0x48 }
  - { offsetInCU: 0x1BA4, offset: 0x3BB3C, size: 0x8, addend: 0x0, symName: '__ZN107_$LT$pyo3..instance..Bound$LT$pyo3..types..list..PyList$GT$$u20$as$u20$pyo3..types..list..PyListMethods$GT$6append5inner17h017f1f7c5ee30e3eE', symObjAddr: 0x58FC, symBinAddr: 0xE168, symSize: 0x9C }
  - { offsetInCU: 0x1BE8, offset: 0x3BB80, size: 0x8, addend: 0x0, symName: '__ZN75_$LT$pyo3..types..list..PyList$u20$as$u20$pyo3..type_object..PyTypeInfo$GT$16is_type_of_bound17hfd0a49a28fc7bcd5E', symObjAddr: 0x6E54, symBinAddr: 0xE3F4, symSize: 0x30 }
  - { offsetInCU: 0x1D8C, offset: 0x3BD24, size: 0x8, addend: 0x0, symName: '__ZN52_$LT$T$u20$as$u20$pyo3..type_object..PyTypeCheck$GT$10type_check17hf2e8d4f2b5cbb0b3E', symObjAddr: 0x4DDC, symBinAddr: 0xDEC8, symSize: 0x24 }
  - { offsetInCU: 0x23EF, offset: 0x3C387, size: 0x8, addend: 0x0, symName: __ZN8pyo3_ffi7cpython11tupleobject16PyTuple_SET_ITEM17h5d2b40b8eaa9358dE, symObjAddr: 0x13E0, symBinAddr: 0xDDE0, symSize: 0xE8 }
  - { offsetInCU: 0x2B3B, offset: 0x3CAD3, size: 0x8, addend: 0x0, symName: __ZN4core3ffi5c_str4CStr6as_ptr17hc025341b93d7c0dbE, symObjAddr: 0x5E0, symBinAddr: 0xDCC4, symSize: 0x18 }
  - { offsetInCU: 0x2BD5, offset: 0x3CB6D, size: 0x8, addend: 0x0, symName: __ZN4pyo35types8function11PyCFunction12internal_new17he1ed296ec0e2d256E, symObjAddr: 0x55B4, symBinAddr: 0xDEEC, symSize: 0x24C }
  - { offsetInCU: 0x2D1C, offset: 0x3CCB4, size: 0x8, addend: 0x0, symName: __ZN4pyo35types4list6PyList11empty_bound17h0d011dd890b40e8fE, symObjAddr: 0x5800, symBinAddr: 0xE138, symSize: 0x30 }
  - { offsetInCU: 0x37B, offset: 0x3D0C4, size: 0x8, addend: 0x0, symName: __ZN5alloc3fmt6format17hc0cb7879785c528cE, symObjAddr: 0x15F4, symBinAddr: 0xE554, symSize: 0xD4 }
  - { offsetInCU: 0x3DB, offset: 0x3D124, size: 0x8, addend: 0x0, symName: '__ZN5alloc3fmt6format28_$u7b$$u7b$closure$u7d$$u7d$17h8ac221526f5de70eE', symObjAddr: 0x16C8, symBinAddr: 0xE628, symSize: 0x48 }
  - { offsetInCU: 0x430, offset: 0x3D179, size: 0x8, addend: 0x0, symName: '__ZN5alloc3str56_$LT$impl$u20$alloc..borrow..ToOwned$u20$for$u20$str$GT$8to_owned17head782b59b95588eE', symObjAddr: 0x2DEC, symBinAddr: 0xE670, symSize: 0x50 }
  - { offsetInCU: 0x661, offset: 0x3D3AA, size: 0x8, addend: 0x0, symName: '__ZN4core3ptr7mut_ptr31_$LT$impl$u20$$BP$mut$u20$T$GT$7is_null17hbe50bdd50445f649E', symObjAddr: 0x8A8, symBinAddr: 0xE46C, symSize: 0x18 }
  - { offsetInCU: 0x811, offset: 0x3D55A, size: 0x8, addend: 0x0, symName: '__ZN70_$LT$core..num..error..TryFromIntError$u20$as$u20$core..fmt..Debug$GT$3fmt17hf86f8a043f6f2bd5E', symObjAddr: 0x307C, symBinAddr: 0xE6C0, symSize: 0x54 }
  - { offsetInCU: 0x1638, offset: 0x3E381, size: 0x8, addend: 0x0, symName: __ZN4core4iter6traits8iterator8Iterator9enumerate17hf97c266a27aed631E, symObjAddr: 0xD74, symBinAddr: 0xE484, symSize: 0x18 }
  - { offsetInCU: 0x1669, offset: 0x3E3B2, size: 0x8, addend: 0x0, symName: __ZN4core4iter6traits8iterator8Iterator9enumerate17hf97c266a27aed631E, symObjAddr: 0xD74, symBinAddr: 0xE484, symSize: 0x18 }
  - { offsetInCU: 0x18D3, offset: 0x3E61C, size: 0x8, addend: 0x0, symName: '__ZN82_$LT$core..array..iter..IntoIter$LT$T$C$_$GT$$u20$as$u20$core..ops..drop..Drop$GT$4drop17h94019cff9f6d40cdE', symObjAddr: 0x311C, symBinAddr: 0xE714, symSize: 0x28 }
  - { offsetInCU: 0x197C, offset: 0x3E6C5, size: 0x8, addend: 0x0, symName: '__ZN99_$LT$core..array..iter..IntoIter$LT$T$C$_$GT$$u20$as$u20$core..iter..traits..iterator..Iterator$GT$4next17h37cd6733e2847b9bE', symObjAddr: 0x3704, symBinAddr: 0xE890, symSize: 0x148 }
  - { offsetInCU: 0x2387, offset: 0x3F0D0, size: 0x8, addend: 0x0, symName: '__ZN87_$LT$$BP$mut$u20$pyo3_ffi..object..PyObject$u20$as$u20$pyo3..ffi_ptr_ext..FfiPtrExt$GT$19assume_owned_or_err17h7cff693021a13b4cE', symObjAddr: 0x3B50, symBinAddr: 0xE9D8, symSize: 0x24 }
  - { offsetInCU: 0x23CC, offset: 0x3F115, size: 0x8, addend: 0x0, symName: '__ZN87_$LT$$BP$mut$u20$pyo3_ffi..object..PyObject$u20$as$u20$pyo3..ffi_ptr_ext..FfiPtrExt$GT$19assume_owned_or_opt17h9bda11c5877affaeE', symObjAddr: 0x3B74, symBinAddr: 0xE9FC, symSize: 0x24 }
  - { offsetInCU: 0x2411, offset: 0x3F15A, size: 0x8, addend: 0x0, symName: '__ZN87_$LT$$BP$mut$u20$pyo3_ffi..object..PyObject$u20$as$u20$pyo3..ffi_ptr_ext..FfiPtrExt$GT$12assume_owned17hff071139811b496dE', symObjAddr: 0x3B98, symBinAddr: 0xEA20, symSize: 0x24 }
  - { offsetInCU: 0x2456, offset: 0x3F19F, size: 0x8, addend: 0x0, symName: '__ZN87_$LT$$BP$mut$u20$pyo3_ffi..object..PyObject$u20$as$u20$pyo3..ffi_ptr_ext..FfiPtrExt$GT$25assume_borrowed_unchecked17h8d3857dd402a26e7E', symObjAddr: 0x3C04, symBinAddr: 0xEA44, symSize: 0x24 }
  - { offsetInCU: 0x2526, offset: 0x3F26F, size: 0x8, addend: 0x0, symName: __ZN8pyo3_ffi6object12PyType_Check17h5613e098aecc01f1E, symObjAddr: 0x3244, symBinAddr: 0xE73C, symSize: 0x30 }
  - { offsetInCU: 0x2554, offset: 0x3F29D, size: 0x8, addend: 0x0, symName: __ZN8pyo3_ffi6object17PyType_HasFeature17h5fa23203de469513E, symObjAddr: 0x3274, symBinAddr: 0xE76C, symSize: 0x88 }
  - { offsetInCU: 0x2591, offset: 0x3F2DA, size: 0x8, addend: 0x0, symName: __ZN8pyo3_ffi6object19PyType_FastSubclass17hfcd8901cf6c7c3c6E, symObjAddr: 0x337C, symBinAddr: 0xE7F4, symSize: 0x28 }
  - { offsetInCU: 0x25CE, offset: 0x3F317, size: 0x8, addend: 0x0, symName: __ZN8pyo3_ffi6object7Py_TYPE17h633fd1db301f9b6bE, symObjAddr: 0x352C, symBinAddr: 0xE81C, symSize: 0x74 }
  - { offsetInCU: 0x3454, offset: 0x4019D, size: 0x8, addend: 0x0, symName: '__ZN4core5array4iter21IntoIter$LT$T$C$_$GT$12as_mut_slice17h48c987fedb0727e1E', symObjAddr: 0x110C, symBinAddr: 0xE49C, symSize: 0xB8 }
  - { offsetInCU: 0x1A0B, offset: 0x41EE4, size: 0x8, addend: 0x0, symName: '__ZN9once_cell3imp17OnceCell$LT$T$GT$10initialize28_$u7b$$u7b$closure$u7d$$u7d$17hb2aa9839a9be5bdbE', symObjAddr: 0x2D44, symBinAddr: 0xECF4, symSize: 0x1B4 }
  - { offsetInCU: 0x214B, offset: 0x42624, size: 0x8, addend: 0x0, symName: '__ZN67_$LT$alloc..vec..Vec$LT$T$GT$$u20$as$u20$core..default..Default$GT$7default17h9adaf7e6e77594e9E', symObjAddr: 0x25A4, symBinAddr: 0xEB80, symSize: 0x14 }
  - { offsetInCU: 0x216D, offset: 0x42646, size: 0x8, addend: 0x0, symName: '__ZN67_$LT$alloc..vec..Vec$LT$T$GT$$u20$as$u20$core..default..Default$GT$7default17h9adaf7e6e77594e9E', symObjAddr: 0x25A4, symBinAddr: 0xEB80, symSize: 0x14 }
  - { offsetInCU: 0x218E, offset: 0x42667, size: 0x8, addend: 0x0, symName: '__ZN70_$LT$alloc..vec..Vec$LT$T$C$A$GT$$u20$as$u20$core..ops..drop..Drop$GT$4drop17hfd155cfa94fcef09E', symObjAddr: 0x2798, symBinAddr: 0xEB94, symSize: 0x24 }
  - { offsetInCU: 0x2244, offset: 0x4271D, size: 0x8, addend: 0x0, symName: '__ZN90_$LT$alloc..vec..Vec$LT$T$C$A$GT$$u20$as$u20$core..iter..traits..collect..IntoIterator$GT$9into_iter17h4b5d00c239938ecaE', symObjAddr: 0x299C, symBinAddr: 0xEC18, symSize: 0xDC }
  - { offsetInCU: 0x32D7, offset: 0x437B0, size: 0x8, addend: 0x0, symName: __ZN8pyo3_ffi8pyerrors22PyExceptionClass_Check17h45f9051f2ffa4a29E, symObjAddr: 0x2828, symBinAddr: 0xEBB8, symSize: 0x60 }
  - { offsetInCU: 0x39DE, offset: 0x43EB7, size: 0x8, addend: 0x0, symName: '__ZN5alloc3vec12Vec$LT$T$GT$3new17h43bf8bebfc0182b4E', symObjAddr: 0xA88, symBinAddr: 0xEA68, symSize: 0x14 }
  - { offsetInCU: 0x3BBC, offset: 0x44095, size: 0x8, addend: 0x0, symName: '__ZN5alloc3vec16Vec$LT$T$C$A$GT$4push17h06cc0b3b8125a97bE', symObjAddr: 0x1970, symBinAddr: 0xEA7C, symSize: 0xE4 }
  - { offsetInCU: 0x3DFB, offset: 0x442D4, size: 0x8, addend: 0x0, symName: '__ZN5alloc3vec16Vec$LT$T$C$A$GT$8is_empty17hdfbe465fb7874c20E', symObjAddr: 0x24D8, symBinAddr: 0xEB60, symSize: 0x20 }
  - { offsetInCU: 0x4066, offset: 0x4453F, size: 0x8, addend: 0x0, symName: '__ZN9once_cell3imp17OnceCell$LT$T$GT$10initialize17h7ebf9edbd8f07cf8E', symObjAddr: 0x2CB0, symBinAddr: 0x4A500, symSize: 0x94 }
  - { offsetInCU: 0x4122, offset: 0x445FB, size: 0x8, addend: 0x0, symName: '__ZN9once_cell3imp17OnceCell$LT$T$GT$13get_unchecked17hfdb0afff65213cecE', symObjAddr: 0x2EF8, symBinAddr: 0xEEA8, symSize: 0x84 }
  - { offsetInCU: 0x416A, offset: 0x44643, size: 0x8, addend: 0x0, symName: '__ZN9once_cell3imp17OnceCell$LT$T$GT$14is_initialized17h9d70b537b46b9ea7E', symObjAddr: 0x2F7C, symBinAddr: 0xEF2C, symSize: 0x38 }
  - { offsetInCU: 0x10A, offset: 0x447A8, size: 0x8, addend: 0x0, symName: '__ZN45_$LT$T$u20$as$u20$alloc..string..ToString$GT$9to_string17h1cb8175ec92e987fE', symObjAddr: 0x32C, symBinAddr: 0xEFBC, symSize: 0x24 }
  - { offsetInCU: 0x165, offset: 0x44803, size: 0x8, addend: 0x0, symName: '__ZN76_$LT$alloc..string..String$u20$as$u20$core..convert..From$LT$$RF$str$GT$$GT$4from17h0a12f81635f075eeE', symObjAddr: 0x1640, symBinAddr: 0xF3F4, symSize: 0x50 }
  - { offsetInCU: 0x252, offset: 0x448F0, size: 0x8, addend: 0x0, symName: '__ZN55_$LT$$RF$str$u20$as$u20$alloc..string..SpecToString$GT$14spec_to_string17h9df8fa16b505ce1cE', symObjAddr: 0xA88, symBinAddr: 0xEFF4, symSize: 0x5C }
  - { offsetInCU: 0x35D, offset: 0x449FB, size: 0x8, addend: 0x0, symName: '__ZN5alloc6string94_$LT$impl$u20$core..convert..From$LT$$RF$str$GT$$u20$for$u20$alloc..borrow..Cow$LT$str$GT$$GT$4from17h41f09d3d4fa19cdbE', symObjAddr: 0xEFC, symBinAddr: 0xF19C, symSize: 0x2C }
  - { offsetInCU: 0x391, offset: 0x44A2F, size: 0x8, addend: 0x0, symName: '__ZN74_$LT$alloc..string..String$u20$as$u20$core..ops..index..Index$LT$I$GT$$GT$5index17hc5c0b4c4bb6ab59dE', symObjAddr: 0x1464, symBinAddr: 0xF378, symSize: 0x7C }
  - { offsetInCU: 0x4FF, offset: 0x44B9D, size: 0x8, addend: 0x0, symName: '__ZN65_$LT$alloc..string..String$u20$as$u20$core..ops..deref..Deref$GT$5deref17hf956525383a78335E', symObjAddr: 0x1190, symBinAddr: 0xF248, symSize: 0x24 }
  - { offsetInCU: 0x533, offset: 0x44BD1, size: 0x8, addend: 0x0, symName: '__ZN60_$LT$alloc..string..String$u20$as$u20$core..fmt..Display$GT$3fmt17hb16c485795d9bd68E', symObjAddr: 0x105C, symBinAddr: 0xF1C8, symSize: 0x80 }
  - { offsetInCU: 0x9CA, offset: 0x45068, size: 0x8, addend: 0x0, symName: '__ZN5alloc3str83_$LT$impl$u20$core..borrow..Borrow$LT$str$GT$$u20$for$u20$alloc..string..String$GT$6borrow17h46a04d784b025c30E', symObjAddr: 0xB4C, symBinAddr: 0xF050, symSize: 0x2C }
  - { offsetInCU: 0xA9A, offset: 0x45138, size: 0x8, addend: 0x0, symName: __ZN5alloc6borrow3Cow8Borrowed17hdc360a1e48ccd564E, symObjAddr: 0xBFC, symBinAddr: 0xF100, symSize: 0x2C }
  - { offsetInCU: 0xAD2, offset: 0x45170, size: 0x8, addend: 0x0, symName: '__ZN71_$LT$alloc..borrow..Cow$LT$B$GT$$u20$as$u20$core..ops..deref..Deref$GT$5deref17h319f342c75c7acb7E', symObjAddr: 0x13E4, symBinAddr: 0xF2F8, symSize: 0x80 }
  - { offsetInCU: 0xB4B, offset: 0x451E9, size: 0x8, addend: 0x0, symName: '__ZN66_$LT$alloc..borrow..Cow$LT$B$GT$$u20$as$u20$core..fmt..Display$GT$3fmt17h44e55872c4be0503E', symObjAddr: 0x132C, symBinAddr: 0xF26C, symSize: 0x8C }
  - { offsetInCU: 0x1A5C, offset: 0x460FA, size: 0x8, addend: 0x0, symName: '__ZN36_$LT$T$u20$as$u20$core..any..Any$GT$7type_id17hd81fc040dff1b29aE', symObjAddr: 0x1B0, symBinAddr: 0xEF64, symSize: 0x58 }
  - { offsetInCU: 0x1CEC, offset: 0x4638A, size: 0x8, addend: 0x0, symName: '__ZN50_$LT$T$u20$as$u20$core..convert..Into$LT$U$GT$$GT$4into17haaca3b2c8e9e9b29E', symObjAddr: 0xA74, symBinAddr: 0xEFE0, symSize: 0x14 }
  - { offsetInCU: 0x1F81, offset: 0x4661F, size: 0x8, addend: 0x0, symName: '__ZN4pyo33err9err_state20PyErrStateNormalized10ptraceback28_$u7b$$u7b$closure$u7d$$u7d$17h3a8f1cd0050c87e2E', symObjAddr: 0x2BB4, symBinAddr: 0xF560, symSize: 0x24 }
  - { offsetInCU: 0x1FC4, offset: 0x46662, size: 0x8, addend: 0x0, symName: '__ZN4pyo33err9err_state20PyErrStateNormalized4take28_$u7b$$u7b$closure$u7d$$u7d$17h3035003c41812dabE', symObjAddr: 0x2BFC, symBinAddr: 0xF5A8, symSize: 0x14 }
  - { offsetInCU: 0x2008, offset: 0x466A6, size: 0x8, addend: 0x0, symName: '__ZN58_$LT$T$u20$as$u20$pyo3..err..err_state..PyErrArguments$GT$9arguments17h63e57d2c2b984222E', symObjAddr: 0x2C34, symBinAddr: 0xF5BC, symSize: 0x28 }
  - { offsetInCU: 0x2056, offset: 0x466F4, size: 0x8, addend: 0x0, symName: '__ZN58_$LT$T$u20$as$u20$pyo3..err..err_state..PyErrArguments$GT$9arguments17hae11512ec4dc38d9E', symObjAddr: 0x2C78, symBinAddr: 0xF5E4, symSize: 0x28 }
  - { offsetInCU: 0x20A4, offset: 0x46742, size: 0x8, addend: 0x0, symName: '__ZN58_$LT$T$u20$as$u20$pyo3..err..err_state..PyErrArguments$GT$9arguments17hd271360d7a0d314dE', symObjAddr: 0x2CA0, symBinAddr: 0xF60C, symSize: 0x1C }
  - { offsetInCU: 0x20F4, offset: 0x46792, size: 0x8, addend: 0x0, symName: __ZN4pyo33err9err_state10raise_lazy17h8959d1740d3b86e5E, symObjAddr: 0x2F14, symBinAddr: 0xF738, symSize: 0x148 }
  - { offsetInCU: 0x2363, offset: 0x46A01, size: 0x8, addend: 0x0, symName: '__ZN83_$LT$pyo3..exceptions..PyBaseException$u20$as$u20$pyo3..type_object..PyTypeInfo$GT$15type_object_raw17he27ffa0e2bf6af0aE', symObjAddr: 0x50A8, symBinAddr: 0xFABC, symSize: 0x24 }
  - { offsetInCU: 0x23A2, offset: 0x46A40, size: 0x8, addend: 0x0, symName: '__ZN83_$LT$pyo3..exceptions..PyBaseException$u20$as$u20$pyo3..type_object..PyTypeInfo$GT$15type_object_raw28_$u7b$$u7b$closure$u7d$$u7d$17h85317b1470f55c25E', symObjAddr: 0x50CC, symBinAddr: 0xFAE0, symSize: 0x4C }
  - { offsetInCU: 0x23F5, offset: 0x46A93, size: 0x8, addend: 0x0, symName: '__ZN84_$LT$pyo3..exceptions..PyAttributeError$u20$as$u20$pyo3..type_object..PyTypeInfo$GT$15type_object_raw17hb61e8cda6d40b0d1E', symObjAddr: 0x5148, symBinAddr: 0xFB2C, symSize: 0x24 }
  - { offsetInCU: 0x2434, offset: 0x46AD2, size: 0x8, addend: 0x0, symName: '__ZN84_$LT$pyo3..exceptions..PyAttributeError$u20$as$u20$pyo3..type_object..PyTypeInfo$GT$15type_object_raw28_$u7b$$u7b$closure$u7d$$u7d$17h3d383f4fbd6a6e7aE', symObjAddr: 0x516C, symBinAddr: 0xFB50, symSize: 0x4C }
  - { offsetInCU: 0x24BA, offset: 0x46B58, size: 0x8, addend: 0x0, symName: '__ZN81_$LT$pyo3..exceptions..PyImportError$u20$as$u20$pyo3..type_object..PyTypeInfo$GT$15type_object_raw17h59b79c2cfa9c7c4dE', symObjAddr: 0x5274, symBinAddr: 0xFBC4, symSize: 0x24 }
  - { offsetInCU: 0x24F9, offset: 0x46B97, size: 0x8, addend: 0x0, symName: '__ZN81_$LT$pyo3..exceptions..PyImportError$u20$as$u20$pyo3..type_object..PyTypeInfo$GT$15type_object_raw28_$u7b$$u7b$closure$u7d$$u7d$17h0a3687714f58fe83E', symObjAddr: 0x5298, symBinAddr: 0xFBE8, symSize: 0x4C }
  - { offsetInCU: 0x25BB, offset: 0x46C59, size: 0x8, addend: 0x0, symName: '__ZN79_$LT$pyo3..exceptions..PyTypeError$u20$as$u20$pyo3..type_object..PyTypeInfo$GT$15type_object_raw17hfbd0c14a6d502206E', symObjAddr: 0x5464, symBinAddr: 0xFC48, symSize: 0x24 }
  - { offsetInCU: 0x25FA, offset: 0x46C98, size: 0x8, addend: 0x0, symName: '__ZN79_$LT$pyo3..exceptions..PyTypeError$u20$as$u20$pyo3..type_object..PyTypeInfo$GT$15type_object_raw28_$u7b$$u7b$closure$u7d$$u7d$17hcd3385d7014c953bE', symObjAddr: 0x5488, symBinAddr: 0xFC6C, symSize: 0x4C }
  - { offsetInCU: 0x2725, offset: 0x46DC3, size: 0x8, addend: 0x0, symName: '__ZN79_$LT$pyo3..types..string..PyString$u20$as$u20$pyo3..type_object..PyTypeInfo$GT$16is_type_of_bound17h30352fc1a0d9d2afE', symObjAddr: 0x5EA8, symBinAddr: 0xFE08, symSize: 0x30 }
  - { offsetInCU: 0x277A, offset: 0x46E18, size: 0x8, addend: 0x0, symName: '__ZN4pyo35types5tuple125_$LT$impl$u20$pyo3..conversion..IntoPy$LT$pyo3..instance..Py$LT$pyo3..types..any..PyAny$GT$$GT$$u20$for$u20$$LP$T0$C$$RP$$GT$7into_py17h182c69105251ae3dE', symObjAddr: 0x5ED8, symBinAddr: 0xFE38, symSize: 0x54 }
  - { offsetInCU: 0x2811, offset: 0x46EAF, size: 0x8, addend: 0x0, symName: __ZN4pyo35panic14PanicException15type_object_raw11TYPE_OBJECT17h0bdd5a97348fefc8E, symObjAddr: 0x381C8, symBinAddr: 0x6CEA8, symSize: 0x0 }
  - { offsetInCU: 0x281E, offset: 0x46EBC, size: 0x8, addend: 0x0, symName: '__ZN4pyo35panic14PanicException15type_object_raw28_$u7b$$u7b$closure$u7d$$u7d$17h7c3f9b0bf33843fcE', symObjAddr: 0x5D60, symBinAddr: 0xFD20, symSize: 0xCC }
  - { offsetInCU: 0x28EE, offset: 0x46F8C, size: 0x8, addend: 0x0, symName: '__ZN77_$LT$pyo3..panic..PanicException$u20$as$u20$pyo3..type_object..PyTypeInfo$GT$15type_object_raw17h19f543bd7ca0b19cE', symObjAddr: 0x5E2C, symBinAddr: 0xFDEC, symSize: 0x1C }
  - { offsetInCU: 0x293E, offset: 0x46FDC, size: 0x8, addend: 0x0, symName: '__ZN4pyo311conversions3std6string80_$LT$impl$u20$pyo3..conversion..ToPyObject$u20$for$u20$alloc..string..String$GT$9to_object17hb918a937fe655987E', symObjAddr: 0x25BC, symBinAddr: 0xF444, symSize: 0x34 }
  - { offsetInCU: 0x2989, offset: 0x47027, size: 0x8, addend: 0x0, symName: '__ZN4pyo311conversions3std6string133_$LT$impl$u20$pyo3..conversion..IntoPy$LT$pyo3..instance..Py$LT$pyo3..types..any..PyAny$GT$$GT$$u20$for$u20$alloc..string..String$GT$7into_py17h0d21675fb93ad263E', symObjAddr: 0x25F0, symBinAddr: 0xF478, symSize: 0x8C }
  - { offsetInCU: 0x2A6D, offset: 0x4710B, size: 0x8, addend: 0x0, symName: __ZN4pyo311type_object10PyTypeInfo17type_object_bound17h7a10b38d21d325efE, symObjAddr: 0x3688, symBinAddr: 0xF880, symSize: 0x30 }
  - { offsetInCU: 0x2AAD, offset: 0x4714B, size: 0x8, addend: 0x0, symName: __ZN4pyo311type_object10PyTypeInfo17type_object_bound17h87acb1089056f0bfE, symObjAddr: 0x36E8, symBinAddr: 0xF8B0, symSize: 0x30 }
  - { offsetInCU: 0x2AED, offset: 0x4718B, size: 0x8, addend: 0x0, symName: __ZN4pyo311type_object10PyTypeInfo17type_object_bound17h8cf0748794d3742aE, symObjAddr: 0x3778, symBinAddr: 0xF8E0, symSize: 0x30 }
  - { offsetInCU: 0x2B2D, offset: 0x471CB, size: 0x8, addend: 0x0, symName: __ZN4pyo311type_object10PyTypeInfo17type_object_bound17hc594e0dc5bca2089E, symObjAddr: 0x3808, symBinAddr: 0xF910, symSize: 0x30 }
  - { offsetInCU: 0x2B6D, offset: 0x4720B, size: 0x8, addend: 0x0, symName: __ZN4pyo311type_object10PyTypeInfo17type_object_bound17hce57955d7c2dd115E, symObjAddr: 0x3868, symBinAddr: 0xF940, symSize: 0x30 }
  - { offsetInCU: 0x2BB3, offset: 0x47251, size: 0x8, addend: 0x0, symName: '__ZN52_$LT$T$u20$as$u20$pyo3..type_object..PyTypeCheck$GT$10type_check17h5da1befb71c88060E', symObjAddr: 0x3990, symBinAddr: 0xF970, symSize: 0x24 }
  - { offsetInCU: 0x3992, offset: 0x48030, size: 0x8, addend: 0x0, symName: '__ZN5alloc6borrow12Cow$LT$B$GT$10into_owned17h84ab8cfb961818f2E', symObjAddr: 0xB78, symBinAddr: 0xF07C, symSize: 0x84 }
  - { offsetInCU: 0x3B03, offset: 0x481A1, size: 0x8, addend: 0x0, symName: __ZN5alloc6string6String6as_str17h5482df311243a74dE, symObjAddr: 0xE08, symBinAddr: 0xF12C, symSize: 0x70 }
  - { offsetInCU: 0x3DCE, offset: 0x4846C, size: 0x8, addend: 0x0, symName: __ZN4pyo33err9err_state20PyErrStateNormalized5ptype17h8f9205bc443b9e4aE, symObjAddr: 0x2B58, symBinAddr: 0xF504, symSize: 0x2C }
  - { offsetInCU: 0x3E09, offset: 0x484A7, size: 0x8, addend: 0x0, symName: __ZN4pyo33err9err_state20PyErrStateNormalized10ptraceback17hb34451af6049f47dE, symObjAddr: 0x2B84, symBinAddr: 0xF530, symSize: 0x30 }
  - { offsetInCU: 0x3E44, offset: 0x484E2, size: 0x8, addend: 0x0, symName: __ZN4pyo33err9err_state20PyErrStateNormalized4take17h2c57d11d0cff374dE, symObjAddr: 0x2BD8, symBinAddr: 0xF584, symSize: 0x24 }
  - { offsetInCU: 0x3E71, offset: 0x4850F, size: 0x8, addend: 0x0, symName: __ZN4pyo33err9err_state10PyErrState9normalize17h7eb86699711f3f63E, symObjAddr: 0x2E04, symBinAddr: 0xF628, symSize: 0x8C }
  - { offsetInCU: 0x3EE7, offset: 0x48585, size: 0x8, addend: 0x0, symName: __ZN4pyo33err9err_state10PyErrState7restore17hfb78a4a13cc6be40E, symObjAddr: 0x2E90, symBinAddr: 0xF6B4, symSize: 0x84 }
  - { offsetInCU: 0x3F8B, offset: 0x48629, size: 0x8, addend: 0x0, symName: __ZN4pyo35panic14PanicException18from_panic_payload17hdaa150821ac30d3cE, symObjAddr: 0x31D8, symBinAddr: 0x4A594, symSize: 0x144 }
  - { offsetInCU: 0x3FE4, offset: 0x48682, size: 0x8, addend: 0x0, symName: __ZN4pyo35types6string8PyString9new_bound17h48fdc4fe1d89f3c9E, symObjAddr: 0x4868, symBinAddr: 0xF994, symSize: 0x68 }
  - { offsetInCU: 0x4059, offset: 0x486F7, size: 0x8, addend: 0x0, symName: __ZN4pyo35types6string8PyString12intern_bound17h45608de8434662b7E, symObjAddr: 0x48D0, symBinAddr: 0xF9FC, symSize: 0x8C }
  - { offsetInCU: 0x40EB, offset: 0x48789, size: 0x8, addend: 0x0, symName: __ZN4pyo35types10typeobject6PyType22from_borrowed_type_ptr17h48359de47f7a2350E, symObjAddr: 0x4A7C, symBinAddr: 0xFA88, symSize: 0x34 }
  - { offsetInCU: 0x4126, offset: 0x487C4, size: 0x8, addend: 0x0, symName: __ZN4pyo310exceptions13PyImportError7new_err17he39b05e46b9bb71aE, symObjAddr: 0x524C, symBinAddr: 0xFB9C, symSize: 0x28 }
  - { offsetInCU: 0x4151, offset: 0x487EF, size: 0x8, addend: 0x0, symName: __ZN4pyo310exceptions11PyTypeError7new_err17h54c4022eb1315954E, symObjAddr: 0x543C, symBinAddr: 0xFC34, symSize: 0x14 }
  - { offsetInCU: 0x4190, offset: 0x4882E, size: 0x8, addend: 0x0, symName: __ZN4pyo35panic14PanicException7new_err17h659b0b99c7a43374E, symObjAddr: 0x5CF8, symBinAddr: 0xFCB8, symSize: 0x28 }
  - { offsetInCU: 0x41CE, offset: 0x4886C, size: 0x8, addend: 0x0, symName: __ZN4pyo35panic14PanicException7new_err17h7384cee611fdfc42E, symObjAddr: 0x5D20, symBinAddr: 0xFCE0, symSize: 0x14 }
  - { offsetInCU: 0x41FA, offset: 0x48898, size: 0x8, addend: 0x0, symName: __ZN4pyo35panic14PanicException15type_object_raw17h4522232afc81585fE, symObjAddr: 0x5D34, symBinAddr: 0xFCF4, symSize: 0x2C }
  - { offsetInCU: 0x4B7, offset: 0x48DCD, size: 0x8, addend: 0x0, symName: '__ZN87_$LT$T$u20$as$u20$alloc..slice..$LT$impl$u20$$u5b$T$u5d$$GT$..to_vec_in..ConvertVec$GT$6to_vec17hb8f14cc9438cf363E', symObjAddr: 0x4C28, symBinAddr: 0x1117C, symSize: 0xD8 }
  - { offsetInCU: 0x936, offset: 0x4924C, size: 0x8, addend: 0x0, symName: '__ZN4core3ptr101drop_in_place$LT$std..sys..sync..once_box..OnceBox$LT$std..sys..pal..unix..sync..mutex..Mutex$GT$$GT$17hf96bddc54debee0dE', symObjAddr: 0x1720, symBinAddr: 0x102C8, symSize: 0x24 }
  - { offsetInCU: 0x965, offset: 0x4927B, size: 0x8, addend: 0x0, symName: '__ZN4core3ptr104drop_in_place$LT$core..option..Option$LT$pyo3..instance..Py$LT$pyo3..types..module..PyModule$GT$$GT$$GT$17h66b3ae3b04c94350E', symObjAddr: 0x178C, symBinAddr: 0x102EC, symSize: 0x44 }
  - { offsetInCU: 0x994, offset: 0x492AA, size: 0x8, addend: 0x0, symName: '__ZN4core3ptr104drop_in_place$LT$core..option..Option$LT$pyo3..instance..Py$LT$pyo3..types..string..PyString$GT$$GT$$GT$17h091d843ae7e6a81bE', symObjAddr: 0x17D0, symBinAddr: 0x10330, symSize: 0x44 }
  - { offsetInCU: 0x9C3, offset: 0x492D9, size: 0x8, addend: 0x0, symName: '__ZN4core3ptr106drop_in_place$LT$alloc..vec..Vec$LT$core..ptr..non_null..NonNull$LT$pyo3_ffi..object..PyObject$GT$$GT$$GT$17h635248aecf41be88E', symObjAddr: 0x1838, symBinAddr: 0x10374, symSize: 0x5C }
  - { offsetInCU: 0x9F2, offset: 0x49308, size: 0x8, addend: 0x0, symName: '__ZN4core3ptr106drop_in_place$LT$core..option..Option$LT$pyo3..instance..Py$LT$pyo3..types..typeobject..PyType$GT$$GT$$GT$17he4bdacaa1811c662E', symObjAddr: 0x1894, symBinAddr: 0x103D0, symSize: 0x44 }
  - { offsetInCU: 0xA21, offset: 0x49337, size: 0x8, addend: 0x0, symName: '__ZN4core3ptr107drop_in_place$LT$core..pin..Pin$LT$alloc..boxed..Box$LT$std..sys..pal..unix..sync..mutex..Mutex$GT$$GT$$GT$17hee0563053112c329E', symObjAddr: 0x18FC, symBinAddr: 0x10414, symSize: 0x24 }
  - { offsetInCU: 0xA50, offset: 0x49366, size: 0x8, addend: 0x0, symName: '__ZN4core3ptr111drop_in_place$LT$core..cell..UnsafeCell$LT$core..option..Option$LT$pyo3..err..err_state..PyErrState$GT$$GT$$GT$17he91e7614422457f2E', symObjAddr: 0x1A30, symBinAddr: 0x10438, symSize: 0x24 }
  - { offsetInCU: 0xA7F, offset: 0x49395, size: 0x8, addend: 0x0, symName: '__ZN4core3ptr113drop_in_place$LT$alloc..raw_vec..RawVec$LT$core..ptr..non_null..NonNull$LT$pyo3_ffi..object..PyObject$GT$$GT$$GT$17h5025f3541eb653f7E', symObjAddr: 0x1A9C, symBinAddr: 0x1045C, symSize: 0x24 }
  - { offsetInCU: 0xAAE, offset: 0x493C4, size: 0x8, addend: 0x0, symName: '__ZN4core3ptr113drop_in_place$LT$core..option..Option$LT$pyo3..instance..Bound$LT$pyo3..types..traceback..PyTraceback$GT$$GT$$GT$17hc0af7699ac226395E', symObjAddr: 0x1AC0, symBinAddr: 0x10480, symSize: 0x44 }
  - { offsetInCU: 0xADD, offset: 0x493F3, size: 0x8, addend: 0x0, symName: '__ZN4core3ptr115drop_in_place$LT$core..array..iter..IntoIter$LT$pyo3..instance..Py$LT$pyo3..types..any..PyAny$GT$$C$1_usize$GT$$GT$17hb42613d800cc2505E', symObjAddr: 0x1B28, symBinAddr: 0x104C4, symSize: 0x24 }
  - { offsetInCU: 0xB0C, offset: 0x49422, size: 0x8, addend: 0x0, symName: '__ZN4core3ptr115drop_in_place$LT$core..result..Result$LT$$LP$$RP$$C$pyo3..instance..Py$LT$pyo3..types..module..PyModule$GT$$GT$$GT$17hcbd20c56cd9748c4E', symObjAddr: 0x1B70, symBinAddr: 0x104E8, symSize: 0x44 }
  - { offsetInCU: 0xB3B, offset: 0x49451, size: 0x8, addend: 0x0, symName: '__ZN4core3ptr115drop_in_place$LT$core..result..Result$LT$$LP$$RP$$C$pyo3..instance..Py$LT$pyo3..types..string..PyString$GT$$GT$$GT$17hb63142b9b427b420E', symObjAddr: 0x1BB4, symBinAddr: 0x1052C, symSize: 0x44 }
  - { offsetInCU: 0xB6A, offset: 0x49480, size: 0x8, addend: 0x0, symName: '__ZN4core3ptr117drop_in_place$LT$core..result..Result$LT$$LP$$RP$$C$pyo3..instance..Py$LT$pyo3..types..typeobject..PyType$GT$$GT$$GT$17h6a513cecb117de8eE', symObjAddr: 0x1CBC, symBinAddr: 0x10570, symSize: 0x44 }
  - { offsetInCU: 0xB99, offset: 0x494AF, size: 0x8, addend: 0x0, symName: '__ZN4core3ptr122drop_in_place$LT$alloc..vec..into_iter..IntoIter$LT$core..ptr..non_null..NonNull$LT$pyo3_ffi..object..PyObject$GT$$GT$$GT$17h4bf267f275647aa1E', symObjAddr: 0x1E00, symBinAddr: 0x105B4, symSize: 0x24 }
  - { offsetInCU: 0xBC8, offset: 0x494DE, size: 0x8, addend: 0x0, symName: '__ZN4core3ptr126drop_in_place$LT$core..result..Result$LT$pyo3..instance..Bound$LT$pyo3..types..string..PyString$GT$$C$pyo3..err..PyErr$GT$$GT$17hcf002f0f8d47ca01E', symObjAddr: 0x1E94, symBinAddr: 0x105D8, symSize: 0x50 }
  - { offsetInCU: 0xBF7, offset: 0x4950D, size: 0x8, addend: 0x0, symName: '__ZN4core3ptr135drop_in_place$LT$core..option..Option$LT$core..pin..Pin$LT$alloc..boxed..Box$LT$std..sys..pal..unix..sync..mutex..Mutex$GT$$GT$$GT$$GT$17hd5195222f79556a7E', symObjAddr: 0x2070, symBinAddr: 0x10628, symSize: 0x44 }
  - { offsetInCU: 0xC26, offset: 0x4953C, size: 0x8, addend: 0x0, symName: '__ZN4core3ptr136drop_in_place$LT$core..cell..UnsafeCell$LT$alloc..vec..Vec$LT$core..ptr..non_null..NonNull$LT$pyo3_ffi..object..PyObject$GT$$GT$$GT$$GT$17hb161d3da0a1eb42eE', symObjAddr: 0x2144, symBinAddr: 0x1066C, symSize: 0x24 }
  - { offsetInCU: 0xC55, offset: 0x4956B, size: 0x8, addend: 0x0, symName: '__ZN4core3ptr141drop_in_place$LT$pyo3..err..PyErr..new$LT$pyo3..panic..PanicException$C$$LP$alloc..string..String$C$$RP$$GT$..$u7b$$u7b$closure$u7d$$u7d$$GT$17hd2119bbaff4047e2E', symObjAddr: 0x2384, symBinAddr: 0x10690, symSize: 0x24 }
  - { offsetInCU: 0xC84, offset: 0x4959A, size: 0x8, addend: 0x0, symName: '__ZN4core3ptr145drop_in_place$LT$std..sync..poison..mutex..Mutex$LT$alloc..vec..Vec$LT$core..ptr..non_null..NonNull$LT$pyo3_ffi..object..PyObject$GT$$GT$$GT$$GT$17h550e7ef3f5431026E', symObjAddr: 0x2530, symBinAddr: 0x106B4, symSize: 0x60 }
  - { offsetInCU: 0xCB3, offset: 0x495C9, size: 0x8, addend: 0x0, symName: '__ZN4core3ptr146drop_in_place$LT$pyo3..err..PyErr..new$LT$pyo3..exceptions..PyTypeError$C$pyo3..err..PyDowncastErrorArguments$GT$..$u7b$$u7b$closure$u7d$$u7d$$GT$17haa0777b99c995ae9E', symObjAddr: 0x25B4, symBinAddr: 0x10714, symSize: 0x24 }
  - { offsetInCU: 0xCE2, offset: 0x495F8, size: 0x8, addend: 0x0, symName: '__ZN4core3ptr150drop_in_place$LT$std..sync..poison..mutex..MutexGuard$LT$alloc..vec..Vec$LT$core..ptr..non_null..NonNull$LT$pyo3_ffi..object..PyObject$GT$$GT$$GT$$GT$17h585e75ba216d7c40E', symObjAddr: 0x262C, symBinAddr: 0x10738, symSize: 0x24 }
  - { offsetInCU: 0xD11, offset: 0x49627, size: 0x8, addend: 0x0, symName: '__ZN4core3ptr165drop_in_place$LT$core..iter..adapters..enumerate..Enumerate$LT$core..array..iter..IntoIter$LT$pyo3..instance..Py$LT$pyo3..types..any..PyAny$GT$$C$1_usize$GT$$GT$$GT$17h5ec3a19142c5f855E', symObjAddr: 0x2694, symBinAddr: 0x1075C, symSize: 0x24 }
  - { offsetInCU: 0xD40, offset: 0x49656, size: 0x8, addend: 0x0, symName: '__ZN4core3ptr188drop_in_place$LT$std..sync..poison..PoisonError$LT$std..sync..poison..mutex..MutexGuard$LT$alloc..vec..Vec$LT$core..ptr..non_null..NonNull$LT$pyo3_ffi..object..PyObject$GT$$GT$$GT$$GT$$GT$17h24fdc1ecaaac1c4cE', symObjAddr: 0x2734, symBinAddr: 0x10780, symSize: 0x24 }
  - { offsetInCU: 0xD6F, offset: 0x49685, size: 0x8, addend: 0x0, symName: '__ZN4core3ptr216drop_in_place$LT$$LT$alloc..vec..into_iter..IntoIter$LT$T$C$A$GT$$u20$as$u20$core..ops..drop..Drop$GT$..drop..DropGuard$LT$core..ptr..non_null..NonNull$LT$pyo3_ffi..object..PyObject$GT$$C$alloc..alloc..Global$GT$$GT$17hfda1349ef00b4a83E', symObjAddr: 0x280C, symBinAddr: 0x107A4, symSize: 0x24 }
  - { offsetInCU: 0xD9E, offset: 0x496B4, size: 0x8, addend: 0x0, symName: '__ZN4core3ptr236drop_in_place$LT$alloc..boxed..Box$LT$dyn$u20$core..ops..function..FnOnce$LT$$LP$pyo3..marker..Python$C$$RP$$GT$$u2b$Output$u20$$u3d$$u20$pyo3..err..err_state..PyErrStateLazyFnOutput$u2b$core..marker..Sync$u2b$core..marker..Send$GT$$GT$17h8696602a35b905a8E', symObjAddr: 0x28B0, symBinAddr: 0x107C8, symSize: 0x80 }
  - { offsetInCU: 0xDCD, offset: 0x496E3, size: 0x8, addend: 0x0, symName: '__ZN4core3ptr37drop_in_place$LT$pyo3..err..PyErr$GT$17h05e27ee831089d5cE', symObjAddr: 0x2B84, symBinAddr: 0x10848, symSize: 0x24 }
  - { offsetInCU: 0xDFC, offset: 0x49712, size: 0x8, addend: 0x0, symName: '__ZN4core3ptr40drop_in_place$LT$pyo3..gil..GILGuard$GT$17h57b0a95b18d3ee0cE', symObjAddr: 0x2BA8, symBinAddr: 0x1086C, symSize: 0x60 }
  - { offsetInCU: 0xE2B, offset: 0x49741, size: 0x8, addend: 0x0, symName: '__ZN4core3ptr42drop_in_place$LT$alloc..string..String$GT$17hb4af8f56836f5eefE', symObjAddr: 0x2C3C, symBinAddr: 0x108CC, symSize: 0x24 }
  - { offsetInCU: 0xE5A, offset: 0x49770, size: 0x8, addend: 0x0, symName: '__ZN4core3ptr45drop_in_place$LT$pyo3..gil..ReferencePool$GT$17h9b9d55e445753130E', symObjAddr: 0x2D00, symBinAddr: 0x108F0, symSize: 0x24 }
  - { offsetInCU: 0xE89, offset: 0x4979F, size: 0x8, addend: 0x0, symName: '__ZN4core3ptr50drop_in_place$LT$alloc..borrow..Cow$LT$str$GT$$GT$17h487dc1157ecfb8abE', symObjAddr: 0x2E38, symBinAddr: 0x10914, symSize: 0x48 }
  - { offsetInCU: 0xEB8, offset: 0x497CE, size: 0x8, addend: 0x0, symName: '__ZN4core3ptr50drop_in_place$LT$pyo3..impl_..panic..PanicTrap$GT$17h382a3384a55b732fE', symObjAddr: 0x2E80, symBinAddr: 0x1095C, symSize: 0x24 }
  - { offsetInCU: 0xEE7, offset: 0x497FD, size: 0x8, addend: 0x0, symName: '__ZN4core3ptr53drop_in_place$LT$$LP$alloc..string..String$C$$RP$$GT$17h3cccbcfa3b656b26E', symObjAddr: 0x2F10, symBinAddr: 0x10980, symSize: 0x24 }
  - { offsetInCU: 0xF16, offset: 0x4982C, size: 0x8, addend: 0x0, symName: '__ZN4core3ptr53drop_in_place$LT$pyo3..err..err_state..PyErrState$GT$17h1c28594accbded56E', symObjAddr: 0x2F44, symBinAddr: 0x109A4, symSize: 0x58 }
  - { offsetInCU: 0xF45, offset: 0x4985B, size: 0x8, addend: 0x0, symName: '__ZN4core3ptr56drop_in_place$LT$pyo3..err..PyDowncastErrorArguments$GT$17h78d1f456ba7ba5efE', symObjAddr: 0x2FF0, symBinAddr: 0x109FC, symSize: 0x5C }
  - { offsetInCU: 0xF74, offset: 0x4988A, size: 0x8, addend: 0x0, symName: '__ZN4core3ptr58drop_in_place$LT$std..sys..sync..mutex..pthread..Mutex$GT$17h1ce060cd414a7b09E', symObjAddr: 0x30B8, symBinAddr: 0x10A58, symSize: 0x5C }
  - { offsetInCU: 0xFA3, offset: 0x498B9, size: 0x8, addend: 0x0, symName: '__ZN4core3ptr60drop_in_place$LT$std..sys..pal..unix..sync..mutex..Mutex$GT$17h7057b83ef2af281eE', symObjAddr: 0x316C, symBinAddr: 0x10AB4, symSize: 0x24 }
  - { offsetInCU: 0xFD2, offset: 0x498E8, size: 0x8, addend: 0x0, symName: '__ZN4core3ptr63drop_in_place$LT$pyo3..err..err_state..PyErrStateNormalized$GT$17hc66a17138ab8a417E', symObjAddr: 0x31A0, symBinAddr: 0x10AD8, symSize: 0x24 }
  - { offsetInCU: 0x1001, offset: 0x49917, size: 0x8, addend: 0x0, symName: '__ZN4core3ptr70drop_in_place$LT$pyo3..instance..Py$LT$pyo3..types..any..PyAny$GT$$GT$17h18e6f162d80c1a03E', symObjAddr: 0x3468, symBinAddr: 0x10AFC, symSize: 0x2C }
  - { offsetInCU: 0x1030, offset: 0x49946, size: 0x8, addend: 0x0, symName: '__ZN4core3ptr73drop_in_place$LT$core..option..Option$LT$pyo3..gil..ReferencePool$GT$$GT$17h6ec60cfc4d3bc9fdE', symObjAddr: 0x35F0, symBinAddr: 0x10B28, symSize: 0x40 }
  - { offsetInCU: 0x105F, offset: 0x49975, size: 0x8, addend: 0x0, symName: '__ZN4core3ptr73drop_in_place$LT$pyo3..instance..Bound$LT$pyo3..types..any..PyAny$GT$$GT$17h8d3e963cba8cf65aE', symObjAddr: 0x3654, symBinAddr: 0x10B68, symSize: 0x24 }
  - { offsetInCU: 0x108E, offset: 0x499A4, size: 0x8, addend: 0x0, symName: '__ZN4core3ptr74drop_in_place$LT$pyo3..instance..Py$LT$pyo3..types..tuple..PyTuple$GT$$GT$17h49c86a0dd3e3af41E', symObjAddr: 0x3748, symBinAddr: 0x10B8C, symSize: 0x2C }
  - { offsetInCU: 0x10BD, offset: 0x499D3, size: 0x8, addend: 0x0, symName: '__ZN4core3ptr75drop_in_place$LT$core..option..Option$LT$alloc..ffi..c_str..CString$GT$$GT$17h7e39730ea3252745E', symObjAddr: 0x3774, symBinAddr: 0x10BB8, symSize: 0x44 }
  - { offsetInCU: 0x10EC, offset: 0x49A02, size: 0x8, addend: 0x0, symName: '__ZN4core3ptr75drop_in_place$LT$core..result..Result$LT$$RF$str$C$pyo3..err..PyErr$GT$$GT$17hcda50458544bd7dcE', symObjAddr: 0x37B8, symBinAddr: 0x10BFC, symSize: 0x40 }
  - { offsetInCU: 0x111B, offset: 0x49A31, size: 0x8, addend: 0x0, symName: '__ZN4core3ptr75drop_in_place$LT$pyo3..instance..Bound$LT$pyo3..types..list..PyList$GT$$GT$17hf4bd9c38beffbb58E', symObjAddr: 0x381C, symBinAddr: 0x10C3C, symSize: 0x24 }
  - { offsetInCU: 0x114A, offset: 0x49A60, size: 0x8, addend: 0x0, symName: '__ZN4core3ptr76drop_in_place$LT$pyo3..instance..Py$LT$pyo3..types..module..PyModule$GT$$GT$17h0adc9653511561efE', symObjAddr: 0x38B4, symBinAddr: 0x10C60, symSize: 0x2C }
  - { offsetInCU: 0x1179, offset: 0x49A8F, size: 0x8, addend: 0x0, symName: '__ZN4core3ptr76drop_in_place$LT$pyo3..instance..Py$LT$pyo3..types..string..PyString$GT$$GT$17h49434b9bb2a6f178E', symObjAddr: 0x38E0, symBinAddr: 0x10C8C, symSize: 0x2C }
  - { offsetInCU: 0x11A8, offset: 0x49ABE, size: 0x8, addend: 0x0, symName: '__ZN4core3ptr77drop_in_place$LT$pyo3..instance..Bound$LT$pyo3..types..bytes..PyBytes$GT$$GT$17h8fd2bb4039aae3eeE', symObjAddr: 0x3930, symBinAddr: 0x10CB8, symSize: 0x24 }
  - { offsetInCU: 0x11D7, offset: 0x49AED, size: 0x8, addend: 0x0, symName: '__ZN4core3ptr78drop_in_place$LT$pyo3..instance..Py$LT$pyo3..types..typeobject..PyType$GT$$GT$17h9af7a913456bf8edE', symObjAddr: 0x3A9C, symBinAddr: 0x10CDC, symSize: 0x2C }
  - { offsetInCU: 0x1206, offset: 0x49B1C, size: 0x8, addend: 0x0, symName: '__ZN4core3ptr79drop_in_place$LT$pyo3..instance..Bound$LT$pyo3..types..string..PyString$GT$$GT$17hafe9032f61a4d404E', symObjAddr: 0x3B48, symBinAddr: 0x10D08, symSize: 0x24 }
  - { offsetInCU: 0x1235, offset: 0x49B4B, size: 0x8, addend: 0x0, symName: '__ZN4core3ptr80drop_in_place$LT$$u5b$pyo3..instance..Py$LT$pyo3..types..any..PyAny$GT$$u5d$$GT$17he75d56a7b5203a35E', symObjAddr: 0x3B6C, symBinAddr: 0x10D2C, symSize: 0xB4 }
  - { offsetInCU: 0x1264, offset: 0x49B7A, size: 0x8, addend: 0x0, symName: '__ZN4core3ptr80drop_in_place$LT$pyo3..instance..Py$LT$pyo3..exceptions..PyBaseException$GT$$GT$17h7f2f80fab2fddcc1E', symObjAddr: 0x3CCC, symBinAddr: 0x10DE0, symSize: 0x2C }
  - { offsetInCU: 0x1293, offset: 0x49BA9, size: 0x8, addend: 0x0, symName: '__ZN4core3ptr81drop_in_place$LT$core..option..Option$LT$pyo3..err..err_state..PyErrState$GT$$GT$17h723b5151da655594E', symObjAddr: 0x3D1C, symBinAddr: 0x10E0C, symSize: 0x40 }
  - { offsetInCU: 0x12C2, offset: 0x49BD8, size: 0x8, addend: 0x0, symName: '__ZN4core3ptr81drop_in_place$LT$pyo3..instance..Bound$LT$pyo3..types..typeobject..PyType$GT$$GT$17h5c5095ec647a8e29E', symObjAddr: 0x3DA4, symBinAddr: 0x10E4C, symSize: 0x24 }
  - { offsetInCU: 0x12F1, offset: 0x49C07, size: 0x8, addend: 0x0, symName: '__ZN4core3ptr83drop_in_place$LT$pyo3..instance..Bound$LT$pyo3..exceptions..PyBaseException$GT$$GT$17hb9452bc3f3434488E', symObjAddr: 0x3DC8, symBinAddr: 0x10E70, symSize: 0x24 }
  - { offsetInCU: 0x1320, offset: 0x49C36, size: 0x8, addend: 0x0, symName: '__ZN4core3ptr84drop_in_place$LT$pyo3..instance..Bound$LT$pyo3..types..function..PyCFunction$GT$$GT$17h17dafed8be68f3b0E', symObjAddr: 0x3E34, symBinAddr: 0x10E94, symSize: 0x24 }
  - { offsetInCU: 0x134F, offset: 0x49C65, size: 0x8, addend: 0x0, symName: '__ZN4core3ptr85drop_in_place$LT$alloc..boxed..Box$LT$std..sys..pal..unix..sync..mutex..Mutex$GT$$GT$17hc6309364f00ad8d0E', symObjAddr: 0x3F0C, symBinAddr: 0x10EB8, symSize: 0x60 }
  - { offsetInCU: 0x137E, offset: 0x49C94, size: 0x8, addend: 0x0, symName: '__ZN4core3ptr85drop_in_place$LT$pyo3..instance..Bound$LT$pyo3..types..traceback..PyTraceback$GT$$GT$17h18f770e3015690ccE', symObjAddr: 0x4020, symBinAddr: 0x10F18, symSize: 0x24 }
  - { offsetInCU: 0x13AD, offset: 0x49CC3, size: 0x8, addend: 0x0, symName: '__ZN4core3ptr91drop_in_place$LT$$u5b$pyo3..instance..Py$LT$pyo3..types..any..PyAny$GT$$u3b$$u20$1$u5d$$GT$17hd3552278dcab3f34E', symObjAddr: 0x4078, symBinAddr: 0x10F3C, symSize: 0xA4 }
  - { offsetInCU: 0x13DC, offset: 0x49CF2, size: 0x8, addend: 0x0, symName: '__ZN4core3ptr91drop_in_place$LT$alloc..boxed..Box$LT$dyn$u20$core..any..Any$u2b$core..marker..Send$GT$$GT$17h6a578785ac45be77E', symObjAddr: 0x41C0, symBinAddr: 0x10FE0, symSize: 0x80 }
  - { offsetInCU: 0x140B, offset: 0x49D21, size: 0x8, addend: 0x0, symName: '__ZN4core3ptr97drop_in_place$LT$core..result..Result$LT$alloc..borrow..Cow$LT$str$GT$$C$pyo3..err..PyErr$GT$$GT$17he5b8e05079df5a1aE', symObjAddr: 0x44A0, symBinAddr: 0x11060, symSize: 0x50 }
  - { offsetInCU: 0x29B1, offset: 0x4B2C7, size: 0x8, addend: 0x0, symName: '__ZN4core3ops8function6FnOnce40call_once$u7b$$u7b$vtable.shim$u7d$$u7d$17h156a94ec6d5dfda0E', symObjAddr: 0x9F4, symBinAddr: 0xFF54, symSize: 0x30 }
  - { offsetInCU: 0x29F5, offset: 0x4B30B, size: 0x8, addend: 0x0, symName: '__ZN4core3ops8function6FnOnce40call_once$u7b$$u7b$vtable.shim$u7d$$u7d$17h33bb9f7e7a6938a8E', symObjAddr: 0xAF8, symBinAddr: 0xFF84, symSize: 0x30 }
  - { offsetInCU: 0x2A35, offset: 0x4B34B, size: 0x8, addend: 0x0, symName: '__ZN4core3ops8function6FnOnce40call_once$u7b$$u7b$vtable.shim$u7d$$u7d$17h7283a480f38f1937E', symObjAddr: 0xC34, symBinAddr: 0xFFB4, symSize: 0x30 }
  - { offsetInCU: 0x2A79, offset: 0x4B38F, size: 0x8, addend: 0x0, symName: '__ZN4core3ops8function6FnOnce40call_once$u7b$$u7b$vtable.shim$u7d$$u7d$17hbec4eaedf400122fE', symObjAddr: 0xD84, symBinAddr: 0xFFE4, symSize: 0x30 }
  - { offsetInCU: 0x2AB9, offset: 0x4B3CF, size: 0x8, addend: 0x0, symName: '__ZN4core3ops8function6FnOnce40call_once$u7b$$u7b$vtable.shim$u7d$$u7d$17hc25e6ce16845bef8E', symObjAddr: 0xDE4, symBinAddr: 0x10014, symSize: 0x24 }
  - { offsetInCU: 0x2AFD, offset: 0x4B413, size: 0x8, addend: 0x0, symName: '__ZN4core3ops8function6FnOnce40call_once$u7b$$u7b$vtable.shim$u7d$$u7d$17hd83ee9dac09bc70eE', symObjAddr: 0xEA0, symBinAddr: 0x10038, symSize: 0x24 }
  - { offsetInCU: 0x2B41, offset: 0x4B457, size: 0x8, addend: 0x0, symName: '__ZN4core3ops8function6FnOnce40call_once$u7b$$u7b$vtable.shim$u7d$$u7d$17hfbc535dbe4848b73E', symObjAddr: 0xF88, symBinAddr: 0x1005C, symSize: 0x24 }
  - { offsetInCU: 0x2B85, offset: 0x4B49B, size: 0x8, addend: 0x0, symName: __ZN4core3ops8function6FnOnce9call_once17h05cd37036c30c639E, symObjAddr: 0xFD4, symBinAddr: 0x10080, symSize: 0x24 }
  - { offsetInCU: 0x2BC9, offset: 0x4B4DF, size: 0x8, addend: 0x0, symName: __ZN4core3ops8function6FnOnce9call_once17h1351bd45f89540afE, symObjAddr: 0x1040, symBinAddr: 0x100A4, symSize: 0x4C }
  - { offsetInCU: 0x2C0D, offset: 0x4B523, size: 0x8, addend: 0x0, symName: __ZN4core3ops8function6FnOnce9call_once17h1da44ee69747a9c5E, symObjAddr: 0x10F4, symBinAddr: 0x100F0, symSize: 0x34 }
  - { offsetInCU: 0x2C51, offset: 0x4B567, size: 0x8, addend: 0x0, symName: __ZN4core3ops8function6FnOnce9call_once17h2456d0aa5e124e90E, symObjAddr: 0x1128, symBinAddr: 0x10124, symSize: 0x4C }
  - { offsetInCU: 0x2C91, offset: 0x4B5A7, size: 0x8, addend: 0x0, symName: __ZN4core3ops8function6FnOnce9call_once17h33245aea78b8b8c5E, symObjAddr: 0x11CC, symBinAddr: 0x10170, symSize: 0x20 }
  - { offsetInCU: 0x2CD5, offset: 0x4B5EB, size: 0x8, addend: 0x0, symName: __ZN4core3ops8function6FnOnce9call_once17h3886f8bab84f6d32E, symObjAddr: 0x11EC, symBinAddr: 0x10190, symSize: 0x40 }
  - { offsetInCU: 0x2D1A, offset: 0x4B630, size: 0x8, addend: 0x0, symName: __ZN4core3ops8function6FnOnce9call_once17h67247479d0a8c7daE, symObjAddr: 0x1318, symBinAddr: 0x101D0, symSize: 0x2C }
  - { offsetInCU: 0x2D5E, offset: 0x4B674, size: 0x8, addend: 0x0, symName: __ZN4core3ops8function6FnOnce9call_once17haaa9a4cd43c739e9E, symObjAddr: 0x13B8, symBinAddr: 0x101FC, symSize: 0x30 }
  - { offsetInCU: 0x2DBF, offset: 0x4B6D5, size: 0x8, addend: 0x0, symName: __ZN4core3ops8function6FnOnce9call_once17hbb8cf1815c7d1a31E, symObjAddr: 0x1434, symBinAddr: 0x1022C, symSize: 0x2C }
  - { offsetInCU: 0x2E03, offset: 0x4B719, size: 0x8, addend: 0x0, symName: __ZN4core3ops8function6FnOnce9call_once17hbcdf7f0708d245f1E, symObjAddr: 0x1460, symBinAddr: 0x10258, symSize: 0x4C }
  - { offsetInCU: 0x2E43, offset: 0x4B759, size: 0x8, addend: 0x0, symName: __ZN4core3ops8function6FnOnce9call_once17he9ee44c7914257a9E, symObjAddr: 0x1558, symBinAddr: 0x102A4, symSize: 0x24 }
  - { offsetInCU: 0x380E, offset: 0x4C124, size: 0x8, addend: 0x0, symName: __ZN4core5alloc6layout6Layout25from_size_align_unchecked18precondition_check17h4d0331d90b2b883fE, symObjAddr: 0x4590, symBinAddr: 0x110B0, symSize: 0x50 }
  - { offsetInCU: 0x3DCB, offset: 0x4C6E1, size: 0x8, addend: 0x0, symName: '__ZN103_$LT$pyo3..instance..Bound$LT$pyo3..types..any..PyAny$GT$$u20$as$u20$pyo3..types..any..PyAnyMethods$GT$7getattr5inner17h31b55334f8a175c7E', symObjAddr: 0x6720, symBinAddr: 0x1134C, symSize: 0xA8 }
  - { offsetInCU: 0x3E0E, offset: 0x4C724, size: 0x8, addend: 0x0, symName: '__ZN103_$LT$pyo3..instance..Bound$LT$pyo3..types..any..PyAny$GT$$u20$as$u20$pyo3..types..any..PyAnyMethods$GT$7setattr5inner17h47161645f4d08f8eE', symObjAddr: 0x67C8, symBinAddr: 0x113F4, symSize: 0xDC }
  - { offsetInCU: 0x3F40, offset: 0x4C856, size: 0x8, addend: 0x0, symName: __ZN4pyo35impl_10trampoline33panic_result_into_callback_output17h01d1b106aac3353aE, symObjAddr: 0x6378, symBinAddr: 0x11254, symSize: 0xF8 }
  - { offsetInCU: 0x4E16, offset: 0x4D72C, size: 0x8, addend: 0x0, symName: '__ZN84_$LT$std..sys..sync..once_box..OnceBox$LT$T$GT$$u20$as$u20$core..ops..drop..Drop$GT$4drop17hfced59ff2bdda498E', symObjAddr: 0x4BAC, symBinAddr: 0x11100, symSize: 0x7C }
  - { offsetInCU: 0x529F, offset: 0x4DBB5, size: 0x8, addend: 0x0, symName: '__ZN3std3sys4sync8once_box16OnceBox$LT$T$GT$10initialize17hf33045695bf60442E', symObjAddr: 0x8, symBinAddr: 0x4A6D8, symSize: 0xE0 }
  - { offsetInCU: 0x5494, offset: 0x4DDAA, size: 0x8, addend: 0x0, symName: '__ZN3std3sys4sync8once_box16OnceBox$LT$T$GT$11get_or_init17h71c5a8830753e86eE', symObjAddr: 0xE8, symBinAddr: 0xFE8C, symSize: 0xC8 }
  - { offsetInCU: 0x3E0, offset: 0x4EC26, size: 0x8, addend: 0x0, symName: '__ZN4core3num23_$LT$impl$u20$usize$GT$13unchecked_add18precondition_check17h83289b5ddb244999E', symObjAddr: 0x1368, symBinAddr: 0x116A4, symSize: 0x44 }
  - { offsetInCU: 0xE60, offset: 0x4F6A6, size: 0x8, addend: 0x0, symName: '__ZN4core3cmp5impls54_$LT$impl$u20$core..cmp..PartialEq$u20$for$u20$i32$GT$2ne17h86a9b1357ce05fbeE', symObjAddr: 0x3E0, symBinAddr: 0x114D0, symSize: 0x2C }
  - { offsetInCU: 0xEA3, offset: 0x4F6E9, size: 0x8, addend: 0x0, symName: '__ZN4core3cmp5impls54_$LT$impl$u20$core..cmp..PartialEq$u20$for$u20$i64$GT$2ne17h57308fa03e41f3d5E', symObjAddr: 0x438, symBinAddr: 0x114FC, symSize: 0x2C }
  - { offsetInCU: 0x1358, offset: 0x4FB9E, size: 0x8, addend: 0x0, symName: '__ZN4core3fmt3num52_$LT$impl$u20$core..fmt..Debug$u20$for$u20$usize$GT$3fmt17hd4bb0288efe39996E', symObjAddr: 0x9B4, symBinAddr: 0x11580, symSize: 0x90 }
  - { offsetInCU: 0x1558, offset: 0x4FD9E, size: 0x8, addend: 0x0, symName: __ZN4core3mem4drop17he1abd2c576446610E, symObjAddr: 0xA44, symBinAddr: 0x11610, symSize: 0x2C }
  - { offsetInCU: 0x15BE, offset: 0x4FE04, size: 0x8, addend: 0x0, symName: __ZN4core3mem4take17hdbbaef5dd05381c9E, symObjAddr: 0xB6C, symBinAddr: 0x1163C, symSize: 0x54 }
  - { offsetInCU: 0x161B, offset: 0x4FE61, size: 0x8, addend: 0x0, symName: __ZN4core3mem6forget17hae5650b91a5ecba4E, symObjAddr: 0xBD4, symBinAddr: 0x11690, symSize: 0x14 }
  - { offsetInCU: 0x165C, offset: 0x4FEA2, size: 0x8, addend: 0x0, symName: '__ZN4core3str6traits99_$LT$impl$u20$core..slice..index..SliceIndex$LT$str$GT$$u20$for$u20$core..ops..range..RangeFull$GT$5index17hc4ce791588ee9d09E', symObjAddr: 0x1454, symBinAddr: 0x116E8, symSize: 0x18 }
  - { offsetInCU: 0x169F, offset: 0x4FEE5, size: 0x8, addend: 0x0, symName: '__ZN50_$LT$T$u20$as$u20$core..convert..Into$LT$U$GT$$GT$4into17hb7666db5245816feE', symObjAddr: 0x1780, symBinAddr: 0x11700, symSize: 0x28 }
  - { offsetInCU: 0x16E5, offset: 0x4FF2B, size: 0x8, addend: 0x0, symName: '__ZN53_$LT$T$u20$as$u20$core..convert..TryInto$LT$U$GT$$GT$8try_into17h5688ead1bb5cd58aE', symObjAddr: 0x180C, symBinAddr: 0x11728, symSize: 0x20 }
  - { offsetInCU: 0x230A, offset: 0x50B50, size: 0x8, addend: 0x0, symName: __ZN8pyo3_ffi12methodobject17PyCFunction_NewEx17h7654049b3b5a4354E, symObjAddr: 0x21A8, symBinAddr: 0x11748, symSize: 0x38 }
  - { offsetInCU: 0x2A3C, offset: 0x51282, size: 0x8, addend: 0x0, symName: __ZN4core3fmt2rt8Argument11new_display17h5aca949a6843cb3fE, symObjAddr: 0x704, symBinAddr: 0x11528, symSize: 0x2C }
  - { offsetInCU: 0x2B64, offset: 0x513AA, size: 0x8, addend: 0x0, symName: __ZN4core3fmt2rt8Argument11new_display17hc64c701624115260E, symObjAddr: 0x7E0, symBinAddr: 0x11554, symSize: 0x2C }
  - { offsetInCU: 0x2CB0, offset: 0x514F6, size: 0x8, addend: 0x0, symName: __ZN4pyo35impl_9pymethods11PyMethodDef13as_method_def17hacdf8c551ade93deE, symObjAddr: 0x3584, symBinAddr: 0x11780, symSize: 0xDC }
  - { offsetInCU: 0xD2, offset: 0x51806, size: 0x8, addend: 0x0, symName: '__ZN103_$LT$alloc..vec..into_iter..IntoIter$LT$T$C$A$GT$$u20$as$u20$core..iter..traits..iterator..Iterator$GT$4next17hab2ae80afef3a5faE', symObjAddr: 0x1CC, symBinAddr: 0x1185C, symSize: 0xAC }
  - { offsetInCU: 0x249, offset: 0x5197D, size: 0x8, addend: 0x0, symName: '__ZN103_$LT$alloc..vec..into_iter..IntoIter$LT$T$C$A$GT$$u20$as$u20$core..iter..traits..iterator..Iterator$GT$9size_hint17h3c66885fcea96fe5E', symObjAddr: 0x39C, symBinAddr: 0x11908, symSize: 0x6C }
  - { offsetInCU: 0x2B4, offset: 0x519E8, size: 0x8, addend: 0x0, symName: '__ZN157_$LT$$LT$alloc..vec..into_iter..IntoIter$LT$T$C$A$GT$$u20$as$u20$core..ops..drop..Drop$GT$..drop..DropGuard$LT$T$C$A$GT$$u20$as$u20$core..ops..drop..Drop$GT$4drop17h8487f76fd39f0522E', symObjAddr: 0xD68, symBinAddr: 0x119B4, symSize: 0x7C }
  - { offsetInCU: 0x3EA, offset: 0x51B1E, size: 0x8, addend: 0x0, symName: '__ZN86_$LT$alloc..vec..into_iter..IntoIter$LT$T$C$A$GT$$u20$as$u20$core..ops..drop..Drop$GT$4drop17hb015d491fb7b6105E', symObjAddr: 0x2CF8, symBinAddr: 0x11CC4, symSize: 0x8C }
  - { offsetInCU: 0x692, offset: 0x51DC6, size: 0x8, addend: 0x0, symName: '__ZN64_$LT$alloc..ffi..c_str..NulError$u20$as$u20$core..fmt..Debug$GT$3fmt17h623912c942e0e356E', symObjAddr: 0x2794, symBinAddr: 0x11C08, symSize: 0x5C }
  - { offsetInCU: 0x6D2, offset: 0x51E06, size: 0x8, addend: 0x0, symName: '__ZN70_$LT$alloc..ffi..c_str..CString$u20$as$u20$core..ops..deref..Deref$GT$5deref17he8cafbaf4d6f40adE', symObjAddr: 0x27F0, symBinAddr: 0x11C64, symSize: 0x20 }
  - { offsetInCU: 0x1506, offset: 0x52C3A, size: 0x8, addend: 0x0, symName: __ZN4core9panicking13panic_display17hfa66ab6e84f43aeaE, symObjAddr: 0x258C, symBinAddr: 0x11B80, symSize: 0x88 }
  - { offsetInCU: 0x15E4, offset: 0x52D18, size: 0x8, addend: 0x0, symName: __ZN4core4iter6traits10exact_size17ExactSizeIterator3len17hb1af51dea1cada59E, symObjAddr: 0x192C, symBinAddr: 0x11A30, symSize: 0xF4 }
  - { offsetInCU: 0x173E, offset: 0x52E72, size: 0x8, addend: 0x0, symName: '__ZN104_$LT$core..ops..index_range..IndexRange$u20$as$u20$core..slice..index..SliceIndex$LT$$u5b$T$u5d$$GT$$GT$17get_unchecked_mut18precondition_check17hbb01800109334320E', symObjAddr: 0x474, symBinAddr: 0x11974, symSize: 0x40 }
  - { offsetInCU: 0x1780, offset: 0x52EB4, size: 0x8, addend: 0x0, symName: '__ZN75_$LT$usize$u20$as$u20$core..slice..index..SliceIndex$LT$$u5b$T$u5d$$GT$$GT$13get_unchecked18precondition_check17hc628b7e3e37094e1E', symObjAddr: 0x2810, symBinAddr: 0x11C84, symSize: 0x40 }
  - { offsetInCU: 0x17C9, offset: 0x52EFD, size: 0x8, addend: 0x0, symName: '__ZN4core7convert3num71_$LT$impl$u20$core..convert..TryFrom$LT$usize$GT$$u20$for$u20$isize$GT$8try_from17h4e4c8e02702b7221E', symObjAddr: 0x247C, symBinAddr: 0x11B24, symSize: 0x5C }
  - { offsetInCU: 0x242B, offset: 0x53B5F, size: 0x8, addend: 0x0, symName: __ZN8pyo3_ffi13unicodeobject15PyUnicode_Check17h87f8fa69c8947cbdE, symObjAddr: 0x2F44, symBinAddr: 0x11D50, symSize: 0x30 }
  - { offsetInCU: 0x2AC1, offset: 0x541F5, size: 0x8, addend: 0x0, symName: '__ZN152_$LT$core..result..Result$LT$pyo3..instance..Bound$LT$pyo3..types..any..PyAny$GT$$C$pyo3..err..PyErr$GT$$u20$as$u20$pyo3..py_result_ext..PyResultExt$GT$23downcast_into_unchecked28_$u7b$$u7b$closure$u7d$$u7d$17h3b4323ac074ad1a1E', symObjAddr: 0x3304, symBinAddr: 0x11D80, symSize: 0x24 }
  - { offsetInCU: 0x2B00, offset: 0x54234, size: 0x8, addend: 0x0, symName: '__ZN152_$LT$core..result..Result$LT$pyo3..instance..Bound$LT$pyo3..types..any..PyAny$GT$$C$pyo3..err..PyErr$GT$$u20$as$u20$pyo3..py_result_ext..PyResultExt$GT$23downcast_into_unchecked28_$u7b$$u7b$closure$u7d$$u7d$17hbfc66c04ab9ebe5bE', symObjAddr: 0x3424, symBinAddr: 0x11DA4, symSize: 0x24 }
  - { offsetInCU: 0x2CB, offset: 0x549DD, size: 0x8, addend: 0x0, symName: __ZN4core4sync6atomic11atomic_load17h20c2b066577b8cb7E, symObjAddr: 0xF84, symBinAddr: 0x11DC8, symSize: 0x150 }
  - { offsetInCU: 0x33D, offset: 0x54A4F, size: 0x8, addend: 0x0, symName: __ZN4core4sync6atomic11atomic_load17ha558c20fe089ac8eE, symObjAddr: 0x10D4, symBinAddr: 0x11F18, symSize: 0x150 }
  - { offsetInCU: 0x3AF, offset: 0x54AC1, size: 0x8, addend: 0x0, symName: __ZN4core4sync6atomic11atomic_load17hafaea285c02ce669E, symObjAddr: 0x1224, symBinAddr: 0x12068, symSize: 0x150 }
  - { offsetInCU: 0x421, offset: 0x54B33, size: 0x8, addend: 0x0, symName: __ZN4core4sync6atomic23atomic_compare_exchange17ha9a978b4689c8fc4E, symObjAddr: 0x1374, symBinAddr: 0x121B8, symSize: 0x514 }
  - { offsetInCU: 0x4E8, offset: 0x54BFA, size: 0x8, addend: 0x0, symName: __ZN4core4sync6atomic23atomic_compare_exchange17hf992f9e25ba94981E, symObjAddr: 0x1888, symBinAddr: 0x126CC, symSize: 0x514 }
  - { offsetInCU: 0xABD, offset: 0x551CF, size: 0x8, addend: 0x0, symName: __ZN4core4sync6atomic9AtomicI6416compare_exchange17h124455a8ee1414b1E, symObjAddr: 0x1D9C, symBinAddr: 0x12BE0, symSize: 0x3C }
  - { offsetInCU: 0x11A, offset: 0x55404, size: 0x8, addend: 0x0, symName: __ZN5alloc5alloc12alloc_zeroed17h4f64cf7282f65c90E, symObjAddr: 0x15F8, symBinAddr: 0x13254, symSize: 0x7C }
  - { offsetInCU: 0x1CA, offset: 0x554B4, size: 0x8, addend: 0x0, symName: '__ZN63_$LT$alloc..alloc..Global$u20$as$u20$core..alloc..Allocator$GT$10deallocate17hae26eeb934595e86E', symObjAddr: 0x1A04, symBinAddr: 0x13598, symSize: 0x80 }
  - { offsetInCU: 0x292, offset: 0x5557C, size: 0x8, addend: 0x0, symName: __ZN5alloc5alloc15exchange_malloc17h16d5ee33090fe201E, symObjAddr: 0x1674, symBinAddr: 0x132D0, symSize: 0xA4 }
  - { offsetInCU: 0x329, offset: 0x55613, size: 0x8, addend: 0x0, symName: __ZN5alloc5alloc5alloc17h68d8860721d4ed6cE, symObjAddr: 0x1718, symBinAddr: 0x13374, symSize: 0x7C }
  - { offsetInCU: 0x4E5, offset: 0x557CF, size: 0x8, addend: 0x0, symName: '__ZN5alloc5boxed16Box$LT$T$C$A$GT$8into_raw17ha8ef5f1ac78287daE', symObjAddr: 0x1928, symBinAddr: 0x13584, symSize: 0x14 }
  - { offsetInCU: 0x52B, offset: 0x55815, size: 0x8, addend: 0x0, symName: '__ZN72_$LT$alloc..boxed..Box$LT$T$C$A$GT$$u20$as$u20$core..ops..drop..Drop$GT$4drop17h2dcde8209e65a760E', symObjAddr: 0x2058, symBinAddr: 0x13618, symSize: 0xC4 }
  - { offsetInCU: 0x662, offset: 0x5594C, size: 0x8, addend: 0x0, symName: '__ZN72_$LT$alloc..boxed..Box$LT$T$C$A$GT$$u20$as$u20$core..ops..drop..Drop$GT$4drop17ha4a1fc4b4662f866E', symObjAddr: 0x21E0, symBinAddr: 0x136DC, symSize: 0xC4 }
  - { offsetInCU: 0x799, offset: 0x55A83, size: 0x8, addend: 0x0, symName: '__ZN72_$LT$alloc..boxed..Box$LT$T$C$A$GT$$u20$as$u20$core..ops..drop..Drop$GT$4drop17hdf30b3eb8ecf5910E', symObjAddr: 0x258C, symBinAddr: 0x137A0, symSize: 0xB0 }
  - { offsetInCU: 0x8D6, offset: 0x55BC0, size: 0x8, addend: 0x0, symName: '__ZN90_$LT$alloc..boxed..Box$LT$F$C$A$GT$$u20$as$u20$core..ops..function..FnOnce$LT$Args$GT$$GT$9call_once17h69a9fd0e310b37feE', symObjAddr: 0x28FC, symBinAddr: 0x138A0, symSize: 0xA0 }
  - { offsetInCU: 0xFDA, offset: 0x562C4, size: 0x8, addend: 0x0, symName: __ZN4core3ptr13read_volatile18precondition_check17h5dfe4f33466dcabbE, symObjAddr: 0xB0C, symBinAddr: 0x13138, symSize: 0x100 }
  - { offsetInCU: 0x2AB1, offset: 0x57D9B, size: 0x8, addend: 0x0, symName: '__ZN42_$LT$$RF$T$u20$as$u20$core..fmt..Debug$GT$3fmt17hff5268f40843c683E', symObjAddr: 0x528, symBinAddr: 0x12E68, symSize: 0x30 }
  - { offsetInCU: 0x2AFD, offset: 0x57DE7, size: 0x8, addend: 0x0, symName: '__ZN44_$LT$$RF$T$u20$as$u20$core..fmt..Display$GT$3fmt17ha8eb832a0ab69b50E', symObjAddr: 0x588, symBinAddr: 0x12E98, symSize: 0x3C }
  - { offsetInCU: 0x2B49, offset: 0x57E33, size: 0x8, addend: 0x0, symName: '__ZN45_$LT$$LP$$RP$$u20$as$u20$core..fmt..Debug$GT$3fmt17hce8183ed72c61babE', symObjAddr: 0x5C4, symBinAddr: 0x12ED4, symSize: 0x40 }
  - { offsetInCU: 0x3268, offset: 0x58552, size: 0x8, addend: 0x0, symName: __ZN4core4hint21unreachable_unchecked18precondition_check17h8b2e4bda65668931E, symObjAddr: 0x154C, symBinAddr: 0x13238, symSize: 0x1C }
  - { offsetInCU: 0x3478, offset: 0x58762, size: 0x8, addend: 0x0, symName: __ZN3std4sync6poison10map_result17h6775ad02ffb202b7E, symObjAddr: 0x240, symBinAddr: 0x12C1C, symSize: 0xC4 }
  - { offsetInCU: 0x352F, offset: 0x58819, size: 0x8, addend: 0x0, symName: '__ZN76_$LT$std..sync..poison..PoisonError$LT$T$GT$$u20$as$u20$core..fmt..Debug$GT$3fmt17h9ac725bdf216cafdE', symObjAddr: 0x263C, symBinAddr: 0x13850, symSize: 0x50 }
  - { offsetInCU: 0x47B1, offset: 0x59A9B, size: 0x8, addend: 0x0, symName: __ZN4pyo35types6module7__all__8INTERNED17h5af7cbb7cc4d504aE, symObjAddr: 0x5C28, symBinAddr: 0x6C3A0, symSize: 0x0 }
  - { offsetInCU: 0x47D2, offset: 0x59ABC, size: 0x8, addend: 0x0, symName: __ZN4pyo35types6module8__name__8INTERNED17hd9aa1b53bcfca87fE, symObjAddr: 0x5C40, symBinAddr: 0x6C3B8, symSize: 0x0 }
  - { offsetInCU: 0x4883, offset: 0x59B6D, size: 0x8, addend: 0x0, symName: '__ZN115_$LT$pyo3..instance..Bound$LT$pyo3..types..module..PyModule$GT$$u20$as$u20$pyo3..types..module..PyModuleMethods$GT$3add5inner17h52e92509298ec952E', symObjAddr: 0x42F0, symBinAddr: 0x144D8, symSize: 0x254 }
  - { offsetInCU: 0x490E, offset: 0x59BF8, size: 0x8, addend: 0x0, symName: __ZN4pyo35types6module7__all__17h7f281b6b4374aecfE, symObjAddr: 0x4710, symBinAddr: 0x1472C, symSize: 0x24 }
  - { offsetInCU: 0x4948, offset: 0x59C32, size: 0x8, addend: 0x0, symName: __ZN4pyo35types6module8__name__17h93d209562bc48e74E, symObjAddr: 0x4734, symBinAddr: 0x14750, symSize: 0x24 }
  - { offsetInCU: 0x49CC, offset: 0x59CB6, size: 0x8, addend: 0x0, symName: __ZN4pyo33gil5START17hf33e4c5ff98c1697E, symObjAddr: 0x2E970, symBinAddr: 0x6CEB0, symSize: 0x0 }
  - { offsetInCU: 0x49E7, offset: 0x59CD1, size: 0x8, addend: 0x0, symName: __ZN4pyo33gil4POOL17ha8ff9c22f124345dE, symObjAddr: 0x5BE8, symBinAddr: 0x6C360, symSize: 0x0 }
  - { offsetInCU: 0x4A51, offset: 0x59D3B, size: 0x8, addend: 0x0, symName: '__ZN4pyo33gil9GIL_COUNT29_$u7b$$u7b$constant$u7d$$u7d$28_$u7b$$u7b$closure$u7d$$u7d$17h81bfa40f1b791154E', symObjAddr: 0x4788, symBinAddr: 0x14774, symSize: 0x34 }
  - { offsetInCU: 0x4B1D, offset: 0x59E07, size: 0x8, addend: 0x0, symName: '__ZN4pyo33gil15gil_is_acquired28_$u7b$$u7b$closure$u7d$$u7d$17h749a8d27e94f996eE', symObjAddr: 0x2D4C, symBinAddr: 0x13974, symSize: 0x2C }
  - { offsetInCU: 0x4B5B, offset: 0x59E45, size: 0x8, addend: 0x0, symName: __ZN4pyo33gil27prepare_freethreaded_python17h2d70be05a107bbb3E, symObjAddr: 0x2D78, symBinAddr: 0x139A0, symSize: 0x1C }
  - { offsetInCU: 0x4B79, offset: 0x59E63, size: 0x8, addend: 0x0, symName: '__ZN4pyo33gil27prepare_freethreaded_python28_$u7b$$u7b$closure$u7d$$u7d$17h4c574ff6b300316dE', symObjAddr: 0x2D94, symBinAddr: 0x139BC, symSize: 0x38 }
  - { offsetInCU: 0x4BDE, offset: 0x59EC8, size: 0x8, addend: 0x0, symName: '__ZN61_$LT$pyo3..gil..GILGuard$u20$as$u20$core..ops..drop..Drop$GT$4drop17h065bbf6714daab04E', symObjAddr: 0x2FC4, symBinAddr: 0x13BEC, symSize: 0x5C }
  - { offsetInCU: 0x4C89, offset: 0x59F73, size: 0x8, addend: 0x0, symName: __ZN4pyo33gil15register_decref17h1bdcd6d43ba27e88E, symObjAddr: 0x3830, symBinAddr: 0x141EC, symSize: 0x1E8 }
  - { offsetInCU: 0x4D09, offset: 0x59FF3, size: 0x8, addend: 0x0, symName: '__ZN4pyo33gil19increment_gil_count28_$u7b$$u7b$closure$u7d$$u7d$17h74cac8de1d9ea78cE', symObjAddr: 0x3A18, symBinAddr: 0x143D4, symSize: 0x74 }
  - { offsetInCU: 0x4D61, offset: 0x5A04B, size: 0x8, addend: 0x0, symName: '__ZN4pyo33gil19decrement_gil_count28_$u7b$$u7b$closure$u7d$$u7d$17hef592126353255c8E', symObjAddr: 0x3A8C, symBinAddr: 0x14448, symSize: 0x90 }
  - { offsetInCU: 0x4DBE, offset: 0x5A0A8, size: 0x8, addend: 0x0, symName: '__ZN4pyo33gil8GILGuard7acquire28_$u7b$$u7b$closure$u7d$$u7d$17h30ef9715bf4b1e0aE', symObjAddr: 0x47BC, symBinAddr: 0x147A8, symSize: 0xA4 }
  - { offsetInCU: 0x4EF9, offset: 0x5A1E3, size: 0x8, addend: 0x0, symName: '__ZN4pyo311conversions3std6string119_$LT$impl$u20$pyo3..conversion..IntoPy$LT$pyo3..instance..Py$LT$pyo3..types..any..PyAny$GT$$GT$$u20$for$u20$$RF$str$GT$7into_py17h2b088a3be05be583E', symObjAddr: 0x29D0, symBinAddr: 0x13940, symSize: 0x34 }
  - { offsetInCU: 0x5144, offset: 0x5A42E, size: 0x8, addend: 0x0, symName: __ZN3std4sync6poison4Flag4done17h4faf02d25e15a9a9E, symObjAddr: 0x304, symBinAddr: 0x12CE0, symSize: 0xA4 }
  - { offsetInCU: 0x5232, offset: 0x5A51C, size: 0x8, addend: 0x0, symName: __ZN3std4sync6poison4Flag5guard17h48437ed0d9732adbE, symObjAddr: 0x3A8, symBinAddr: 0x12D84, symSize: 0xE4 }
  - { offsetInCU: 0x5411, offset: 0x5A6FB, size: 0x8, addend: 0x0, symName: __ZN4core3fmt9Arguments6new_v117h3181d1bd030d9131E, symObjAddr: 0x754, symBinAddr: 0x12F14, symSize: 0x54 }
  - { offsetInCU: 0x552D, offset: 0x5A817, size: 0x8, addend: 0x0, symName: __ZN4core3fmt9Arguments6new_v117hd909f3c3da99dd60E, symObjAddr: 0x93C, symBinAddr: 0x12F68, symSize: 0x54 }
  - { offsetInCU: 0x55BD, offset: 0x5A8A7, size: 0x8, addend: 0x0, symName: __ZN4core3fmt9Formatter9write_fmt17h52a0b64da80e3589E, symObjAddr: 0x990, symBinAddr: 0x12FBC, symSize: 0x17C }
  - { offsetInCU: 0x585B, offset: 0x5AB45, size: 0x8, addend: 0x0, symName: __ZN5alloc5alloc6Global10alloc_impl17hbb4b7785afe1da36E, symObjAddr: 0x1794, symBinAddr: 0x133F0, symSize: 0x194 }
  - { offsetInCU: 0x5F11, offset: 0x5B1FB, size: 0x8, addend: 0x0, symName: __ZN4pyo33gil8GILGuard7acquire17h939b70513b88c359E, symObjAddr: 0x2DCC, symBinAddr: 0x139F4, symSize: 0x7C }
  - { offsetInCU: 0x5F39, offset: 0x5B223, size: 0x8, addend: 0x0, symName: __ZN4pyo33gil8GILGuard17acquire_unchecked17h3eaa95fa869a9478E, symObjAddr: 0x2E48, symBinAddr: 0x13A70, symSize: 0xAC }
  - { offsetInCU: 0x5F9F, offset: 0x5B289, size: 0x8, addend: 0x0, symName: __ZN4pyo33gil8GILGuard6assume17hac9f87adcf0af703E, symObjAddr: 0x2EF4, symBinAddr: 0x13B1C, symSize: 0xB0 }
  - { offsetInCU: 0x5FF1, offset: 0x5B2DB, size: 0x8, addend: 0x0, symName: __ZN4pyo33gil8GILGuard6python17h97b701b2822e3caeE, symObjAddr: 0x2FA4, symBinAddr: 0x13BCC, symSize: 0x20 }
  - { offsetInCU: 0x6013, offset: 0x5B2FD, size: 0x8, addend: 0x0, symName: __ZN4pyo33gil13ReferencePool3new17h6165a888ba8a9aa9E, symObjAddr: 0x3020, symBinAddr: 0x13C48, symSize: 0x4C }
  - { offsetInCU: 0x6076, offset: 0x5B360, size: 0x8, addend: 0x0, symName: __ZN4pyo33gil13ReferencePool15register_decref17h6f4a730632562f97E, symObjAddr: 0x306C, symBinAddr: 0x13C94, symSize: 0x130 }
  - { offsetInCU: 0x60FA, offset: 0x5B3E4, size: 0x8, addend: 0x0, symName: __ZN4pyo33gil13ReferencePool13update_counts17hc06311949af6a986E, symObjAddr: 0x319C, symBinAddr: 0x13DC4, symSize: 0x428 }
  - { offsetInCU: 0x6220, offset: 0x5B50A, size: 0x8, addend: 0x0, symName: __ZN4pyo33gil7LockGIL4bail17h71e968d4f2df5223E, symObjAddr: 0x3764, symBinAddr: 0x4A7B8, symSize: 0x64 }
  - { offsetInCU: 0x1E, offset: 0x5B66D, size: 0x8, addend: 0x0, symName: __ZN3std6thread6Thread6unpark17h913f6e00fa7b4bf9E, symObjAddr: 0x0, symBinAddr: 0x1484C, symSize: 0x50 }
  - { offsetInCU: 0x12E, offset: 0x5B77D, size: 0x8, addend: 0x0, symName: __ZN4core4sync6atomic11atomic_load17h398d1749c63e4593E, symObjAddr: 0x32C, symBinAddr: 0x14AFC, symSize: 0x150 }
  - { offsetInCU: 0x1A0, offset: 0x5B7EF, size: 0x8, addend: 0x0, symName: __ZN4core4sync6atomic11atomic_load17h816da2bc5d3f9dc3E, symObjAddr: 0x47C, symBinAddr: 0x14C4C, symSize: 0x150 }
  - { offsetInCU: 0x212, offset: 0x5B861, size: 0x8, addend: 0x0, symName: __ZN4core4sync6atomic12atomic_store17h5e83ed40f5c9c1a9E, symObjAddr: 0x5CC, symBinAddr: 0x14D9C, symSize: 0x154 }
  - { offsetInCU: 0x36C, offset: 0x5B9BB, size: 0x8, addend: 0x0, symName: __ZN4core4sync6atomic23atomic_compare_exchange17h551d989b0c21bf72E, symObjAddr: 0x874, symBinAddr: 0x15044, symSize: 0x514 }
  - { offsetInCU: 0x6DA, offset: 0x5BD29, size: 0x8, addend: 0x0, symName: '__ZN72_$LT$core..option..Option$LT$T$GT$$u20$as$u20$core..default..Default$GT$7default17h37d3db573f2df413E', symObjAddr: 0xE30, symBinAddr: 0x15600, symSize: 0x14 }
  - { offsetInCU: 0x99A, offset: 0x5BFE9, size: 0x8, addend: 0x0, symName: '__ZN4core3ptr40drop_in_place$LT$std..thread..Thread$GT$17h83cfd3600793de3bE', symObjAddr: 0xE8, symBinAddr: 0x148D0, symSize: 0x24 }
  - { offsetInCU: 0x9C9, offset: 0x5C018, size: 0x8, addend: 0x0, symName: '__ZN4core3ptr42drop_in_place$LT$once_cell..imp..Guard$GT$17hfd370b5ae01cf581E', symObjAddr: 0x10C, symBinAddr: 0x148F4, symSize: 0x24 }
  - { offsetInCU: 0x9F8, offset: 0x5C047, size: 0x8, addend: 0x0, symName: '__ZN4core3ptr43drop_in_place$LT$once_cell..imp..Waiter$GT$17hb5b04887fde8b118E', symObjAddr: 0x130, symBinAddr: 0x14918, symSize: 0x24 }
  - { offsetInCU: 0xA27, offset: 0x5C076, size: 0x8, addend: 0x0, symName: '__ZN4core3ptr63drop_in_place$LT$alloc..sync..Arc$LT$std..thread..Inner$GT$$GT$17h07c6185ef003fdbaE', symObjAddr: 0x154, symBinAddr: 0x1493C, symSize: 0x24 }
  - { offsetInCU: 0xA56, offset: 0x5C0A5, size: 0x8, addend: 0x0, symName: '__ZN4core3ptr68drop_in_place$LT$core..option..Option$LT$std..thread..Thread$GT$$GT$17h77923c65214d501dE', symObjAddr: 0x178, symBinAddr: 0x14960, symSize: 0x44 }
  - { offsetInCU: 0xACC, offset: 0x5C11B, size: 0x8, addend: 0x0, symName: '__ZN4core3ptr7mut_ptr31_$LT$impl$u20$$BP$mut$u20$T$GT$7is_null17h956b0c3ce31ce241E', symObjAddr: 0x1BC, symBinAddr: 0x149A4, symSize: 0x18 }
  - { offsetInCU: 0xB60, offset: 0x5C1AF, size: 0x8, addend: 0x0, symName: '__ZN4core3ptr85drop_in_place$LT$core..pin..Pin$LT$alloc..sync..Arc$LT$std..thread..Inner$GT$$GT$$GT$17h89c9b85bc912c9c2E', symObjAddr: 0x1D4, symBinAddr: 0x149BC, symSize: 0x24 }
  - { offsetInCU: 0xB8F, offset: 0x5C1DE, size: 0x8, addend: 0x0, symName: '__ZN4core3ptr92drop_in_place$LT$core..cell..Cell$LT$core..option..Option$LT$std..thread..Thread$GT$$GT$$GT$17h84ac62ec569810fcE', symObjAddr: 0x1F8, symBinAddr: 0x149E0, symSize: 0x24 }
  - { offsetInCU: 0xBBE, offset: 0x5C20D, size: 0x8, addend: 0x0, symName: '__ZN4core3ptr98drop_in_place$LT$core..cell..UnsafeCell$LT$core..option..Option$LT$std..thread..Thread$GT$$GT$$GT$17h749f1aa210abe271E', symObjAddr: 0x21C, symBinAddr: 0x14A04, symSize: 0x24 }
  - { offsetInCU: 0xC2C, offset: 0x5C27B, size: 0x8, addend: 0x0, symName: '__ZN4core3ops8function5impls79_$LT$impl$u20$core..ops..function..FnMut$LT$A$GT$$u20$for$u20$$RF$mut$u20$F$GT$8call_mut17h9e17ddbf6299be72E', symObjAddr: 0xB4, symBinAddr: 0x1489C, symSize: 0x34 }
  - { offsetInCU: 0x10A1, offset: 0x5C6F0, size: 0x8, addend: 0x0, symName: '__ZN71_$LT$alloc..sync..Arc$LT$T$C$A$GT$$u20$as$u20$core..ops..drop..Drop$GT$4drop17h28b642f27021779bE', symObjAddr: 0xD88, symBinAddr: 0x15558, symSize: 0xA8 }
  - { offsetInCU: 0x1453, offset: 0x5CAA2, size: 0x8, addend: 0x0, symName: __ZN3std6thread6Thread6unpark17h913f6e00fa7b4bf9E, symObjAddr: 0x0, symBinAddr: 0x1484C, symSize: 0x50 }
  - { offsetInCU: 0x158F, offset: 0x5CBDE, size: 0x8, addend: 0x0, symName: '__ZN63_$LT$once_cell..imp..Guard$u20$as$u20$core..ops..drop..Drop$GT$4drop17hf51f129d64ee916fE', symObjAddr: 0xE44, symBinAddr: 0x15614, symSize: 0x220 }
  - { offsetInCU: 0x168E, offset: 0x5CCDD, size: 0x8, addend: 0x0, symName: '__ZN63_$LT$once_cell..imp..Guard$u20$as$u20$core..ops..drop..Drop$GT$4drop28_$u7b$$u7b$closure$u7d$$u7d$17hf1d58b4f8ffb3ffbE', symObjAddr: 0x1064, symBinAddr: 0x15834, symSize: 0x14 }
  - { offsetInCU: 0x16CD, offset: 0x5CD1C, size: 0x8, addend: 0x0, symName: __ZN9once_cell3imp18initialize_or_wait17h1e826655dec2ffd7E, symObjAddr: 0x1078, symBinAddr: 0x15848, symSize: 0x1C8 }
  - { offsetInCU: 0x1791, offset: 0x5CDE0, size: 0x8, addend: 0x0, symName: '__ZN9once_cell3imp18initialize_or_wait28_$u7b$$u7b$closure$u7d$$u7d$17h28e187a95fa6ca23E', symObjAddr: 0x1240, symBinAddr: 0x15A10, symSize: 0x18 }
  - { offsetInCU: 0x17CF, offset: 0x5CE1E, size: 0x8, addend: 0x0, symName: __ZN9once_cell3imp4wait17h7a1a3355795413e2E, symObjAddr: 0x1258, symBinAddr: 0x15A28, symSize: 0x210 }
  - { offsetInCU: 0x1877, offset: 0x5CEC6, size: 0x8, addend: 0x0, symName: '__ZN9once_cell3imp4wait28_$u7b$$u7b$closure$u7d$$u7d$17h8866cd7a91ede535E', symObjAddr: 0x1468, symBinAddr: 0x15C38, symSize: 0x14 }
  - { offsetInCU: 0x18AD, offset: 0x5CEFC, size: 0x8, addend: 0x0, symName: '__ZN9once_cell3imp4wait28_$u7b$$u7b$closure$u7d$$u7d$17h6e0585894e4b348eE', symObjAddr: 0x147C, symBinAddr: 0x15C4C, symSize: 0x20 }
  - { offsetInCU: 0x1909, offset: 0x5CF58, size: 0x8, addend: 0x0, symName: __ZN9once_cell3imp6strict4addr17h7ffb3b1bfa056221E, symObjAddr: 0x149C, symBinAddr: 0x15C6C, symSize: 0x10 }
  - { offsetInCU: 0x193E, offset: 0x5CF8D, size: 0x8, addend: 0x0, symName: __ZN9once_cell3imp6strict9with_addr17hdd07954347db6785E, symObjAddr: 0x14AC, symBinAddr: 0x15C7C, symSize: 0x64 }
  - { offsetInCU: 0x1A2A, offset: 0x5D079, size: 0x8, addend: 0x0, symName: __ZN9once_cell3imp6strict8map_addr17h3fce030c5170d2d9E, symObjAddr: 0x1510, symBinAddr: 0x15CE0, symSize: 0x88 }
  - { offsetInCU: 0x1A79, offset: 0x5D0C8, size: 0x8, addend: 0x0, symName: __ZN9once_cell3imp6strict8map_addr17hbc09127ae256dc4eE, symObjAddr: 0x1598, symBinAddr: 0x15D68, symSize: 0x88 }
  - { offsetInCU: 0x1AC8, offset: 0x5D117, size: 0x8, addend: 0x0, symName: __ZN9once_cell3imp6strict8map_addr17hbd1ec4c93c97ba54E, symObjAddr: 0x1620, symBinAddr: 0x15DF0, symSize: 0x88 }
  - { offsetInCU: 0x1B17, offset: 0x5D166, size: 0x8, addend: 0x0, symName: __ZN9once_cell3imp6strict8map_addr17heeef6eedc59e2f15E, symObjAddr: 0x16A8, symBinAddr: 0x15E78, symSize: 0x94 }
  - { offsetInCU: 0x1B97, offset: 0x5D1E6, size: 0x8, addend: 0x0, symName: '__ZN4core4cell13Cell$LT$T$GT$3new17hc4fd0222873df1f5E', symObjAddr: 0x258, symBinAddr: 0x14A28, symSize: 0x14 }
  - { offsetInCU: 0x1BF8, offset: 0x5D247, size: 0x8, addend: 0x0, symName: '__ZN4core4cell13Cell$LT$T$GT$4take17hd82a8ccdb30f6085E', symObjAddr: 0x26C, symBinAddr: 0x14A3C, symSize: 0x3C }
  - { offsetInCU: 0x1C5F, offset: 0x5D2AE, size: 0x8, addend: 0x0, symName: __ZN4core4sync6atomic10AtomicBool3new17h5411527a196ef9b8E, symObjAddr: 0x2A8, symBinAddr: 0x14A78, symSize: 0x18 }
  - { offsetInCU: 0x1C8F, offset: 0x5D2DE, size: 0x8, addend: 0x0, symName: __ZN4core4sync6atomic10AtomicBool4load17h13b62032e36d3c23E, symObjAddr: 0x2C0, symBinAddr: 0x14A90, symSize: 0x38 }
  - { offsetInCU: 0x1CC1, offset: 0x5D310, size: 0x8, addend: 0x0, symName: __ZN4core4sync6atomic10AtomicBool5store17h878bca922770a26bE, symObjAddr: 0x2F8, symBinAddr: 0x14AC8, symSize: 0x34 }
  - { offsetInCU: 0x1EA0, offset: 0x5D4EF, size: 0x8, addend: 0x0, symName: '__ZN4core4sync6atomic18AtomicPtr$LT$T$GT$16compare_exchange17h595fd3904186f271E', symObjAddr: 0x720, symBinAddr: 0x14EF0, symSize: 0x44 }
  - { offsetInCU: 0x1F08, offset: 0x5D557, size: 0x8, addend: 0x0, symName: '__ZN4core4sync6atomic18AtomicPtr$LT$T$GT$4load17h54efdbea0ed38ecdE', symObjAddr: 0x764, symBinAddr: 0x14F34, symSize: 0x30 }
  - { offsetInCU: 0x1F79, offset: 0x5D5C8, size: 0x8, addend: 0x0, symName: '__ZN4core4sync6atomic18AtomicPtr$LT$T$GT$4swap17h9b6555a3694441ccE', symObjAddr: 0x794, symBinAddr: 0x14F64, symSize: 0xE0 }
  - { offsetInCU: 0x1E, offset: 0x5D888, size: 0x8, addend: 0x0, symName: '__ZN42_$LT$$RF$T$u20$as$u20$core..fmt..Debug$GT$3fmt17h719f9b1cd3d9d4e4E', symObjAddr: 0x0, symBinAddr: 0x15F0C, symSize: 0x30 }
  - { offsetInCU: 0xD9, offset: 0x5D943, size: 0x8, addend: 0x0, symName: '__ZN68_$LT$alloc..ffi..c_str..CString$u20$as$u20$core..ops..drop..Drop$GT$4drop17h4e97060d0b5f1ec0E', symObjAddr: 0x10D8, symBinAddr: 0x165E8, symSize: 0x6C }
  - { offsetInCU: 0x22B, offset: 0x5DA95, size: 0x8, addend: 0x0, symName: '__ZN65_$LT$alloc..vec..Vec$LT$T$C$A$GT$$u20$as$u20$core..fmt..Debug$GT$3fmt17h3a4112fb46f82394E', symObjAddr: 0x1068, symBinAddr: 0x16578, symSize: 0x70 }
  - { offsetInCU: 0x372, offset: 0x5DBDC, size: 0x8, addend: 0x0, symName: '__ZN63_$LT$alloc..alloc..Global$u20$as$u20$core..alloc..Allocator$GT$10deallocate17hd4d65db096ccc75dE', symObjAddr: 0xF8C, symBinAddr: 0x164F8, symSize: 0x80 }
  - { offsetInCU: 0x52C, offset: 0x5DD96, size: 0x8, addend: 0x0, symName: '__ZN72_$LT$alloc..boxed..Box$LT$T$C$A$GT$$u20$as$u20$core..ops..drop..Drop$GT$4drop17ha9a70bdb304a3ab8E', symObjAddr: 0x1164, symBinAddr: 0x16654, symSize: 0xBC }
  - { offsetInCU: 0xBA4, offset: 0x5E40E, size: 0x8, addend: 0x0, symName: '__ZN4core3ptr46drop_in_place$LT$alloc..vec..Vec$LT$u8$GT$$GT$17h2ff85a9a46bb3721E', symObjAddr: 0xAE8, symBinAddr: 0x161B4, symSize: 0x5C }
  - { offsetInCU: 0xBD3, offset: 0x5E43D, size: 0x8, addend: 0x0, symName: '__ZN4core3ptr47drop_in_place$LT$alloc..ffi..c_str..CString$GT$17h4478ac4a7d024401E', symObjAddr: 0xB44, symBinAddr: 0x16210, symSize: 0x5C }
  - { offsetInCU: 0xC02, offset: 0x5E46C, size: 0x8, addend: 0x0, symName: '__ZN4core3ptr48drop_in_place$LT$alloc..ffi..c_str..NulError$GT$17h02793063555c44fcE', symObjAddr: 0xBA0, symBinAddr: 0x1626C, symSize: 0x24 }
  - { offsetInCU: 0xC31, offset: 0x5E49B, size: 0x8, addend: 0x0, symName: '__ZN4core3ptr53drop_in_place$LT$alloc..raw_vec..RawVec$LT$u8$GT$$GT$17h1d9bf226bbdf7513E', symObjAddr: 0xBD4, symBinAddr: 0x16290, symSize: 0x24 }
  - { offsetInCU: 0xC60, offset: 0x5E4CA, size: 0x8, addend: 0x0, symName: '__ZN4core3ptr58drop_in_place$LT$alloc..boxed..Box$LT$$u5b$u8$u5d$$GT$$GT$17hcfe73cb0416d4f46E', symObjAddr: 0xBF8, symBinAddr: 0x162B4, symSize: 0x2C }
  - { offsetInCU: 0xF02, offset: 0x5E76C, size: 0x8, addend: 0x0, symName: '__ZN42_$LT$$RF$T$u20$as$u20$core..fmt..Debug$GT$3fmt17h719f9b1cd3d9d4e4E', symObjAddr: 0x0, symBinAddr: 0x15F0C, symSize: 0x30 }
  - { offsetInCU: 0xF48, offset: 0x5E7B2, size: 0x8, addend: 0x0, symName: '__ZN42_$LT$$RF$T$u20$as$u20$core..fmt..Debug$GT$3fmt17hb8e57583dd501483E', symObjAddr: 0x30, symBinAddr: 0x15F3C, symSize: 0x30 }
  - { offsetInCU: 0xF94, offset: 0x5E7FE, size: 0x8, addend: 0x0, symName: '__ZN48_$LT$$u5b$T$u5d$$u20$as$u20$core..fmt..Debug$GT$3fmt17h7ad686f108d8f0efE', symObjAddr: 0xAC, symBinAddr: 0x15F6C, symSize: 0x88 }
  - { offsetInCU: 0x13B4, offset: 0x5EC1E, size: 0x8, addend: 0x0, symName: '__ZN4core3fmt3num49_$LT$impl$u20$core..fmt..Debug$u20$for$u20$u8$GT$3fmt17hbd475c0545c2ac70E', symObjAddr: 0x2A8, symBinAddr: 0x1600C, symSize: 0x90 }
  - { offsetInCU: 0x15C1, offset: 0x5EE2B, size: 0x8, addend: 0x0, symName: '__ZN91_$LT$core..slice..iter..Iter$LT$T$GT$$u20$as$u20$core..iter..traits..iterator..Iterator$GT$4next17h801e174fcf2f2503E', symObjAddr: 0x1260, symBinAddr: 0x16750, symSize: 0xA8 }
  - { offsetInCU: 0x1729, offset: 0x5EF93, size: 0x8, addend: 0x0, symName: '__ZN4core5slice29_$LT$impl$u20$$u5b$T$u5d$$GT$8is_empty17h8129fa5c9bafee98E', symObjAddr: 0xC8C, symBinAddr: 0x16330, symSize: 0x1C }
  - { offsetInCU: 0x17A6, offset: 0x5F010, size: 0x8, addend: 0x0, symName: __ZN4core5slice3raw14from_raw_parts18precondition_check17h1e9ded5670e3cf94E, symObjAddr: 0xCA8, symBinAddr: 0x1634C, symSize: 0x168 }
  - { offsetInCU: 0x195B, offset: 0x5F1C5, size: 0x8, addend: 0x0, symName: '__ZN75_$LT$usize$u20$as$u20$core..slice..index..SliceIndex$LT$$u5b$T$u5d$$GT$$GT$17get_unchecked_mut18precondition_check17hc85a733a3941b844E', symObjAddr: 0x1220, symBinAddr: 0x16710, symSize: 0x40 }
  - { offsetInCU: 0x1BFD, offset: 0x5F467, size: 0x8, addend: 0x0, symName: __ZN4core5alloc6layout6Layout25from_size_align_unchecked18precondition_check17h34a09d7349393084E, symObjAddr: 0xC3C, symBinAddr: 0x162E0, symSize: 0x50 }
  - { offsetInCU: 0x1CCE, offset: 0x5F538, size: 0x8, addend: 0x0, symName: '__ZN63_$LT$I$u20$as$u20$core..iter..traits..collect..IntoIterator$GT$9into_iter17h6858e8c7e7fd395cE', symObjAddr: 0xF70, symBinAddr: 0x164DC, symSize: 0x1C }
  - { offsetInCU: 0x1DB6, offset: 0x5F620, size: 0x8, addend: 0x0, symName: __ZN8pyo3_ffi32_cstr_from_utf8_with_nul_checked17heacdf3714201525fE, symObjAddr: 0x1308, symBinAddr: 0x167F8, symSize: 0x1C8 }
  - { offsetInCU: 0x20CB, offset: 0x5F935, size: 0x8, addend: 0x0, symName: __ZN4core3ffi5c_str4CStr29from_bytes_with_nul_unchecked17hb9960cb1bb822d4aE, symObjAddr: 0x24C, symBinAddr: 0x15FF4, symSize: 0x18 }
  - { offsetInCU: 0x218C, offset: 0x5F9F6, size: 0x8, addend: 0x0, symName: __ZN4core3fmt8builders9DebugList7entries17h70f4af41c38afd38E, symObjAddr: 0x7D4, symBinAddr: 0x1609C, symSize: 0xD0 }
  - { offsetInCU: 0x221E, offset: 0x5FA88, size: 0x8, addend: 0x0, symName: __ZN4core3fmt9Arguments9new_const17hde92a36422fbbbd3E, symObjAddr: 0x8F4, symBinAddr: 0x1616C, symSize: 0x48 }
  - { offsetInCU: 0x2280, offset: 0x5FAEA, size: 0x8, addend: 0x0, symName: __ZN5alloc3ffi5c_str7CString3new17h62035f00b62745baE, symObjAddr: 0xF48, symBinAddr: 0x164B4, symSize: 0x28 }
  - { offsetInCU: 0x5FC, offset: 0x603E1, size: 0x8, addend: 0x0, symName: __ZN4core4hint16assert_unchecked18precondition_check17h73271c6606ed9bc0E, symObjAddr: 0xD0C, symBinAddr: 0x169C0, symSize: 0x38 }
  - { offsetInCU: 0x7D9, offset: 0x605BE, size: 0x8, addend: 0x0, symName: '__ZN5alloc7raw_vec20RawVecInner$LT$A$GT$16with_capacity_in17hcc5484d7d66cba2dE', symObjAddr: 0x1AFC, symBinAddr: 0x169F8, symSize: 0x10C }
  - { offsetInCU: 0x459, offset: 0x60B76, size: 0x8, addend: 0x0, symName: '__ZN5alloc11collections5btree3map25IntoIter$LT$K$C$V$C$A$GT$10dying_next17h29597749f5cf78b4E', symObjAddr: 0xE5D4, symBinAddr: 0x21644, symSize: 0x228 }
  - { offsetInCU: 0x80D, offset: 0x60F2A, size: 0x8, addend: 0x0, symName: '__ZN5alloc11collections5btree3map25IntoIter$LT$K$C$V$C$A$GT$10dying_next17hc2e125bd912b83b1E', symObjAddr: 0xEA24, symBinAddr: 0x2186C, symSize: 0x228 }
  - { offsetInCU: 0x1565, offset: 0x61C82, size: 0x8, addend: 0x0, symName: '__ZN5alloc7raw_vec19RawVec$LT$T$C$A$GT$8grow_one17h0e9c8a6dc4e6f3eeE', symObjAddr: 0x10D54, symBinAddr: 0x21E18, symSize: 0x0 }
  - { offsetInCU: 0x1679, offset: 0x61D96, size: 0x8, addend: 0x0, symName: '__ZN5alloc7raw_vec19RawVec$LT$T$C$A$GT$8grow_one17h133d5de146fac5aaE', symObjAddr: 0x10E08, symBinAddr: 0x21ECC, symSize: 0x0 }
  - { offsetInCU: 0x178D, offset: 0x61EAA, size: 0x8, addend: 0x0, symName: '__ZN5alloc7raw_vec19RawVec$LT$T$C$A$GT$8grow_one17h284f0dc743bcd5deE', symObjAddr: 0x10ECC, symBinAddr: 0x21F90, symSize: 0x0 }
  - { offsetInCU: 0x18A1, offset: 0x61FBE, size: 0x8, addend: 0x0, symName: '__ZN5alloc7raw_vec19RawVec$LT$T$C$A$GT$8grow_one17h3451656c84a6112fE', symObjAddr: 0x10F90, symBinAddr: 0x22054, symSize: 0xC0 }
  - { offsetInCU: 0x19B5, offset: 0x620D2, size: 0x8, addend: 0x0, symName: '__ZN5alloc7raw_vec19RawVec$LT$T$C$A$GT$8grow_one17h6c4a4471bee858b7E', symObjAddr: 0x11114, symBinAddr: 0x22114, symSize: 0x0 }
  - { offsetInCU: 0x1AC9, offset: 0x621E6, size: 0x8, addend: 0x0, symName: '__ZN5alloc7raw_vec19RawVec$LT$T$C$A$GT$8grow_one17h97649372e8738c5bE', symObjAddr: 0x111C8, symBinAddr: 0x221C8, symSize: 0x0 }
  - { offsetInCU: 0x1BDD, offset: 0x622FA, size: 0x8, addend: 0x0, symName: '__ZN5alloc7raw_vec19RawVec$LT$T$C$A$GT$8grow_one17hbd59924c128125beE', symObjAddr: 0x1127C, symBinAddr: 0x2227C, symSize: 0x0 }
  - { offsetInCU: 0x1CF1, offset: 0x6240E, size: 0x8, addend: 0x0, symName: '__ZN5alloc7raw_vec19RawVec$LT$T$C$A$GT$8grow_one17hc9591e7c05a5b84fE', symObjAddr: 0x11340, symBinAddr: 0x22340, symSize: 0xC0 }
  - { offsetInCU: 0x1E05, offset: 0x62522, size: 0x8, addend: 0x0, symName: '__ZN5alloc7raw_vec19RawVec$LT$T$C$A$GT$8grow_one17heeaec855d8c47480E', symObjAddr: 0x11400, symBinAddr: 0x22400, symSize: 0xB4 }
  - { offsetInCU: 0x1F19, offset: 0x62636, size: 0x8, addend: 0x0, symName: '__ZN5alloc7raw_vec19RawVec$LT$T$C$A$GT$8grow_one17hf7ce503a7e4a0297E', symObjAddr: 0x114B4, symBinAddr: 0x224B4, symSize: 0xC4 }
  - { offsetInCU: 0x202D, offset: 0x6274A, size: 0x8, addend: 0x0, symName: '__ZN5alloc7raw_vec19RawVec$LT$T$C$A$GT$8grow_one17hf8669f8b1fcb847dE', symObjAddr: 0x11578, symBinAddr: 0x22578, symSize: 0xC0 }
  - { offsetInCU: 0x26CA, offset: 0x62DE7, size: 0x8, addend: 0x0, symName: __ZN5alloc7raw_vec11finish_grow17h96343f1c26ca9532E, symObjAddr: 0x10CCC, symBinAddr: 0x4A960, symSize: 0x88 }
  - { offsetInCU: 0x2762, offset: 0x62E7F, size: 0x8, addend: 0x0, symName: '__ZN5alloc7raw_vec20RawVecInner$LT$A$GT$7reserve21do_reserve_and_handle17hea85015447c3b969E', symObjAddr: 0x11638, symBinAddr: 0x4A9E8, symSize: 0xF0 }
  - { offsetInCU: 0x35CB, offset: 0x63CE8, size: 0x8, addend: 0x0, symName: '__ZN5alloc4sync16Arc$LT$T$C$A$GT$9drop_slow17h5c4fc64a0a5cbb20E', symObjAddr: 0x107A4, symBinAddr: 0x21A94, symSize: 0xC0 }
  - { offsetInCU: 0x38EF, offset: 0x6400C, size: 0x8, addend: 0x0, symName: '__ZN5alloc4sync16Arc$LT$T$C$A$GT$9drop_slow17h62502ffacaac1cf0E', symObjAddr: 0x10864, symBinAddr: 0x21B54, symSize: 0x98 }
  - { offsetInCU: 0x3A8C, offset: 0x641A9, size: 0x8, addend: 0x0, symName: '__ZN5alloc4sync16Arc$LT$T$C$A$GT$9drop_slow17h803830b5a48cab72E', symObjAddr: 0x108FC, symBinAddr: 0x21BEC, symSize: 0x44 }
  - { offsetInCU: 0x3B68, offset: 0x64285, size: 0x8, addend: 0x0, symName: '__ZN5alloc4sync16Arc$LT$T$C$A$GT$9drop_slow17h8fd7aab1a3111568E', symObjAddr: 0x109B4, symBinAddr: 0x21C30, symSize: 0x78 }
  - { offsetInCU: 0x3D33, offset: 0x64450, size: 0x8, addend: 0x0, symName: '__ZN5alloc4sync16Arc$LT$T$C$A$GT$9drop_slow17h9d64a4bb4901c62fE', symObjAddr: 0x10A2C, symBinAddr: 0x21CA8, symSize: 0xA0 }
  - { offsetInCU: 0x402A, offset: 0x64747, size: 0x8, addend: 0x0, symName: '__ZN5alloc4sync16Arc$LT$T$C$A$GT$9drop_slow17hd272f2f54f6249c9E', symObjAddr: 0x10ACC, symBinAddr: 0x21D48, symSize: 0xD0 }
  - { offsetInCU: 0x45C9, offset: 0x64CE6, size: 0x8, addend: 0x0, symName: '__ZN64_$LT$alloc..ffi..c_str..NulError$u20$as$u20$core..fmt..Debug$GT$3fmt17hd5124030a93e21e7E', symObjAddr: 0x1848C, symBinAddr: 0x2939C, symSize: 0x4C }
  - { offsetInCU: 0x4943, offset: 0x65060, size: 0x8, addend: 0x0, symName: '__ZN58_$LT$alloc..string..String$u20$as$u20$core..fmt..Debug$GT$3fmt17h14c683d62b47aed6E', symObjAddr: 0xD02C, symBinAddr: 0x21450, symSize: 0x1C }
  - { offsetInCU: 0x49FD, offset: 0x6511A, size: 0x8, addend: 0x0, symName: '__ZN58_$LT$alloc..string..String$u20$as$u20$core..fmt..Write$GT$10write_char17hca608ea4a9635092E', symObjAddr: 0xD048, symBinAddr: 0x2146C, symSize: 0x158 }
  - { offsetInCU: 0x4C60, offset: 0x6537D, size: 0x8, addend: 0x0, symName: '__ZN58_$LT$alloc..string..String$u20$as$u20$core..fmt..Write$GT$9write_str17h170208372085df66E', symObjAddr: 0xD1A0, symBinAddr: 0x215C4, symSize: 0x80 }
  - { offsetInCU: 0x4DB8, offset: 0x654D5, size: 0x8, addend: 0x0, symName: '__ZN60_$LT$alloc..string..String$u20$as$u20$core..fmt..Display$GT$3fmt17hedee84231df499e2E', symObjAddr: 0x18470, symBinAddr: 0x29380, symSize: 0x1C }
  - { offsetInCU: 0x5FAE, offset: 0x666CB, size: 0x8, addend: 0x0, symName: '__ZN4core3ptr107drop_in_place$LT$core..pin..Pin$LT$alloc..boxed..Box$LT$std..sys..pal..unix..sync..mutex..Mutex$GT$$GT$$GT$17h535bf4dc8b5d11afE', symObjAddr: 0x1AE8, symBinAddr: 0x17434, symSize: 0x2C }
  - { offsetInCU: 0x6044, offset: 0x66761, size: 0x8, addend: 0x0, symName: '__ZN4core3ptr119drop_in_place$LT$std..io..default_write_fmt..Adapter$LT$std..io..cursor..Cursor$LT$$RF$mut$u20$$u5b$u8$u5d$$GT$$GT$$GT$17ha6563c472750c916E', symObjAddr: 0x1BAC, symBinAddr: 0x17460, symSize: 0x20 }
  - { offsetInCU: 0x607A, offset: 0x66797, size: 0x8, addend: 0x0, symName: '__ZN4core3ptr123drop_in_place$LT$addr2line..Context$LT$gimli..read..endian_slice..EndianSlice$LT$gimli..endianity..LittleEndian$GT$$GT$$GT$17h826c0225023ea38cE', symObjAddr: 0x1BCC, symBinAddr: 0x17480, symSize: 0x70 }
  - { offsetInCU: 0x6158, offset: 0x66875, size: 0x8, addend: 0x0, symName: '__ZN4core3ptr128drop_in_place$LT$core..result..Result$LT$$RF$std..thread..Thread$C$$LP$$RF$std..thread..Thread$C$std..thread..Thread$RP$$GT$$GT$17h3065443ec87fcbd5E', symObjAddr: 0x1D84, symBinAddr: 0x174F0, symSize: 0x38 }
  - { offsetInCU: 0x62F4, offset: 0x66A11, size: 0x8, addend: 0x0, symName: '__ZN4core3ptr129drop_in_place$LT$addr2line..unit..ResUnit$LT$gimli..read..endian_slice..EndianSlice$LT$gimli..endianity..LittleEndian$GT$$GT$$GT$17h3867be5d879458c3E', symObjAddr: 0x1DBC, symBinAddr: 0x17528, symSize: 0xE4 }
  - { offsetInCU: 0x6511, offset: 0x66C2E, size: 0x8, addend: 0x0, symName: '__ZN4core3ptr129drop_in_place$LT$addr2line..unit..SupUnit$LT$gimli..read..endian_slice..EndianSlice$LT$gimli..endianity..LittleEndian$GT$$GT$$GT$17h6722639038908b8cE', symObjAddr: 0x1EA0, symBinAddr: 0x1760C, symSize: 0x54 }
  - { offsetInCU: 0x65E8, offset: 0x66D05, size: 0x8, addend: 0x0, symName: '__ZN4core3ptr130drop_in_place$LT$addr2line..unit..ResUnits$LT$gimli..read..endian_slice..EndianSlice$LT$gimli..endianity..LittleEndian$GT$$GT$$GT$17hddea49c32a3cb1daE', symObjAddr: 0x1EF4, symBinAddr: 0x17660, symSize: 0xD0 }
  - { offsetInCU: 0x678C, offset: 0x66EA9, size: 0x8, addend: 0x0, symName: '__ZN4core3ptr130drop_in_place$LT$addr2line..unit..SupUnits$LT$gimli..read..endian_slice..EndianSlice$LT$gimli..endianity..LittleEndian$GT$$GT$$GT$17h05b397f9405bc240E', symObjAddr: 0x1FC4, symBinAddr: 0x17730, symSize: 0xE4 }
  - { offsetInCU: 0x6948, offset: 0x67065, size: 0x8, addend: 0x0, symName: '__ZN4core3ptr130drop_in_place$LT$gimli..read..dwarf..Dwarf$LT$gimli..read..endian_slice..EndianSlice$LT$gimli..endianity..LittleEndian$GT$$GT$$GT$17hb2286e0c673f97b6E', symObjAddr: 0x20A8, symBinAddr: 0x17814, symSize: 0x58 }
  - { offsetInCU: 0x6A11, offset: 0x6712E, size: 0x8, addend: 0x0, symName: '__ZN4core3ptr131drop_in_place$LT$$u5b$core..option..Option$LT$core..option..Option$LT$std..backtrace_rs..symbolize..gimli..Mapping$GT$$GT$$u5d$$GT$17he8425dfee9c14867E', symObjAddr: 0x2100, symBinAddr: 0x1786C, symSize: 0xCC }
  - { offsetInCU: 0x6ABA, offset: 0x671D7, size: 0x8, addend: 0x0, symName: '__ZN4core3ptr137drop_in_place$LT$gimli..read..dwarf..Unit$LT$gimli..read..endian_slice..EndianSlice$LT$gimli..endianity..LittleEndian$GT$$C$usize$GT$$GT$17h4dc8e706da64ef2cE', symObjAddr: 0x2290, symBinAddr: 0x17938, symSize: 0x54 }
  - { offsetInCU: 0x6BAF, offset: 0x672CC, size: 0x8, addend: 0x0, symName: '__ZN4core3ptr138drop_in_place$LT$addr2line..function..LazyFunction$LT$gimli..read..endian_slice..EndianSlice$LT$gimli..endianity..LittleEndian$GT$$GT$$GT$17ha422590694c74454E', symObjAddr: 0x22E4, symBinAddr: 0x1798C, symSize: 0x64 }
  - { offsetInCU: 0x6BC6, offset: 0x672E3, size: 0x8, addend: 0x0, symName: '__ZN4core3ptr138drop_in_place$LT$addr2line..function..LazyFunction$LT$gimli..read..endian_slice..EndianSlice$LT$gimli..endianity..LittleEndian$GT$$GT$$GT$17ha422590694c74454E', symObjAddr: 0x22E4, symBinAddr: 0x1798C, symSize: 0x64 }
  - { offsetInCU: 0x6BDB, offset: 0x672F8, size: 0x8, addend: 0x0, symName: '__ZN4core3ptr138drop_in_place$LT$addr2line..function..LazyFunction$LT$gimli..read..endian_slice..EndianSlice$LT$gimli..endianity..LittleEndian$GT$$GT$$GT$17ha422590694c74454E', symObjAddr: 0x22E4, symBinAddr: 0x1798C, symSize: 0x64 }
  - { offsetInCU: 0x6BF0, offset: 0x6730D, size: 0x8, addend: 0x0, symName: '__ZN4core3ptr138drop_in_place$LT$addr2line..function..LazyFunction$LT$gimli..read..endian_slice..EndianSlice$LT$gimli..endianity..LittleEndian$GT$$GT$$GT$17ha422590694c74454E', symObjAddr: 0x22E4, symBinAddr: 0x1798C, symSize: 0x64 }
  - { offsetInCU: 0x6D30, offset: 0x6744D, size: 0x8, addend: 0x0, symName: '__ZN4core3ptr144drop_in_place$LT$alloc..vec..Vec$LT$core..option..Option$LT$core..option..Option$LT$std..backtrace_rs..symbolize..gimli..Mapping$GT$$GT$$GT$$GT$17h3639e473ac7f2d76E', symObjAddr: 0x2348, symBinAddr: 0x179F0, symSize: 0x78 }
  - { offsetInCU: 0x6E96, offset: 0x675B3, size: 0x8, addend: 0x0, symName: '__ZN4core3ptr152drop_in_place$LT$alloc..vec..Vec$LT$addr2line..unit..ResUnit$LT$gimli..read..endian_slice..EndianSlice$LT$gimli..endianity..LittleEndian$GT$$GT$$GT$$GT$17hbe9766872c95eabaE', symObjAddr: 0x248C, symBinAddr: 0x17A68, symSize: 0xC4 }
  - { offsetInCU: 0x7002, offset: 0x6771F, size: 0x8, addend: 0x0, symName: '__ZN4core3ptr152drop_in_place$LT$alloc..vec..Vec$LT$addr2line..unit..SupUnit$LT$gimli..read..endian_slice..EndianSlice$LT$gimli..endianity..LittleEndian$GT$$GT$$GT$$GT$17headd247285b2fbe1E', symObjAddr: 0x2550, symBinAddr: 0x17B2C, symSize: 0xF4 }
  - { offsetInCU: 0x7218, offset: 0x67935, size: 0x8, addend: 0x0, symName: '__ZN4core3ptr156drop_in_place$LT$alloc..boxed..Box$LT$$u5b$core..option..Option$LT$core..option..Option$LT$std..backtrace_rs..symbolize..gimli..Mapping$GT$$GT$$u5d$$GT$$GT$17hb5e3f9f714738b79E', symObjAddr: 0x2644, symBinAddr: 0x17C20, symSize: 0xF8 }
  - { offsetInCU: 0x733F, offset: 0x67A5C, size: 0x8, addend: 0x0, symName: '__ZN4core3ptr159drop_in_place$LT$alloc..sync..ArcInner$LT$gimli..read..dwarf..Dwarf$LT$gimli..read..endian_slice..EndianSlice$LT$gimli..endianity..LittleEndian$GT$$GT$$GT$$GT$17he3e369ba8354a2daE', symObjAddr: 0x273C, symBinAddr: 0x17D18, symSize: 0x58 }
  - { offsetInCU: 0x7418, offset: 0x67B35, size: 0x8, addend: 0x0, symName: '__ZN4core3ptr161drop_in_place$LT$alloc..vec..Vec$LT$addr2line..function..LazyFunction$LT$gimli..read..endian_slice..EndianSlice$LT$gimli..endianity..LittleEndian$GT$$GT$$GT$$GT$17h91edfd0b32db2350E', symObjAddr: 0x2794, symBinAddr: 0x17D70, symSize: 0xAC }
  - { offsetInCU: 0x7653, offset: 0x67D70, size: 0x8, addend: 0x0, symName: '__ZN4core3ptr172drop_in_place$LT$core..result..Result$LT$addr2line..Context$LT$gimli..read..endian_slice..EndianSlice$LT$gimli..endianity..LittleEndian$GT$$GT$$C$gimli..read..Error$GT$$GT$17h1e2723abce7675e9E', symObjAddr: 0x28EC, symBinAddr: 0x17E1C, symSize: 0x80 }
  - { offsetInCU: 0x76E7, offset: 0x67E04, size: 0x8, addend: 0x0, symName: '__ZN4core3ptr173drop_in_place$LT$alloc..boxed..Box$LT$$u5b$addr2line..function..LazyFunction$LT$gimli..read..endian_slice..EndianSlice$LT$gimli..endianity..LittleEndian$GT$$GT$$u5d$$GT$$GT$17h57c7ef21e5af413eE', symObjAddr: 0x296C, symBinAddr: 0x17E9C, symSize: 0x9C }
  - { offsetInCU: 0x76FE, offset: 0x67E1B, size: 0x8, addend: 0x0, symName: '__ZN4core3ptr173drop_in_place$LT$alloc..boxed..Box$LT$$u5b$addr2line..function..LazyFunction$LT$gimli..read..endian_slice..EndianSlice$LT$gimli..endianity..LittleEndian$GT$$GT$$u5d$$GT$$GT$17h57c7ef21e5af413eE', symObjAddr: 0x296C, symBinAddr: 0x17E9C, symSize: 0x9C }
  - { offsetInCU: 0x793A, offset: 0x68057, size: 0x8, addend: 0x0, symName: '__ZN4core3ptr181drop_in_place$LT$core..option..Option$LT$gimli..read..line..IncompleteLineProgram$LT$gimli..read..endian_slice..EndianSlice$LT$gimli..endianity..LittleEndian$GT$$C$usize$GT$$GT$$GT$17h06a89734de34cb63E', symObjAddr: 0x2A78, symBinAddr: 0x17F38, symSize: 0x98 }
  - { offsetInCU: 0x7BED, offset: 0x6830A, size: 0x8, addend: 0x0, symName: '__ZN4core3ptr181drop_in_place$LT$core..result..Result$LT$addr2line..frame..FrameIter$LT$gimli..read..endian_slice..EndianSlice$LT$gimli..endianity..LittleEndian$GT$$GT$$C$gimli..read..Error$GT$$GT$17hbb41ba65f857eadaE', symObjAddr: 0x2B10, symBinAddr: 0x17FD0, symSize: 0x44 }
  - { offsetInCU: 0x7D27, offset: 0x68444, size: 0x8, addend: 0x0, symName: '__ZN4core3ptr184drop_in_place$LT$core..result..Result$LT$addr2line..function..Functions$LT$gimli..read..endian_slice..EndianSlice$LT$gimli..endianity..LittleEndian$GT$$GT$$C$gimli..read..Error$GT$$GT$17h6f73d57e7c2a13a6E', symObjAddr: 0x2B54, symBinAddr: 0x18014, symSize: 0xD8 }
  - { offsetInCU: 0x86F6, offset: 0x68E13, size: 0x8, addend: 0x0, symName: '__ZN4core3ptr199drop_in_place$LT$core..result..Result$LT$core..option..Option$LT$alloc..sync..Arc$LT$std..sync..poison..mutex..Mutex$LT$alloc..vec..Vec$LT$u8$GT$$GT$$GT$$GT$$C$std..thread..local..AccessError$GT$$GT$17h9c93c40fe7c8bd94E', symObjAddr: 0x2CA0, symBinAddr: 0x180EC, symSize: 0x3C }
  - { offsetInCU: 0x87B9, offset: 0x68ED6, size: 0x8, addend: 0x0, symName: '__ZN4core3ptr231drop_in_place$LT$core..result..Result$LT$core..option..Option$LT$alloc..boxed..Box$LT$addr2line..unit..DwoUnit$LT$gimli..read..endian_slice..EndianSlice$LT$gimli..endianity..LittleEndian$GT$$GT$$GT$$GT$$C$gimli..read..Error$GT$$GT$17hfc0616d2e371ed46E', symObjAddr: 0x2CDC, symBinAddr: 0x18128, symSize: 0xD4 }
  - { offsetInCU: 0x899F, offset: 0x690BC, size: 0x8, addend: 0x0, symName: '__ZN4core3ptr275drop_in_place$LT$gimli..read..line..LineRows$LT$gimli..read..endian_slice..EndianSlice$LT$gimli..endianity..LittleEndian$GT$$C$gimli..read..line..IncompleteLineProgram$LT$gimli..read..endian_slice..EndianSlice$LT$gimli..endianity..LittleEndian$GT$$C$usize$GT$$C$usize$GT$$GT$17h1de9cdfe571dfbbaE', symObjAddr: 0x2DD8, symBinAddr: 0x181FC, symSize: 0x8C }
  - { offsetInCU: 0x8C11, offset: 0x6932E, size: 0x8, addend: 0x0, symName: '__ZN4core3ptr280drop_in_place$LT$$LT$alloc..collections..btree..map..IntoIter$LT$K$C$V$C$A$GT$$u20$as$u20$core..ops..drop..Drop$GT$..drop..DropGuard$LT$u64$C$core..result..Result$LT$alloc..sync..Arc$LT$gimli..read..abbrev..Abbreviations$GT$$C$gimli..read..Error$GT$$C$alloc..alloc..Global$GT$$GT$17hede28d9e69d7a100E', symObjAddr: 0x2E64, symBinAddr: 0x18288, symSize: 0x84 }
  - { offsetInCU: 0x8DA3, offset: 0x694C0, size: 0x8, addend: 0x0, symName: '__ZN4core3ptr42drop_in_place$LT$alloc..string..String$GT$17h011d971054360c24E', symObjAddr: 0x30BC, symBinAddr: 0x1830C, symSize: 0x28 }
  - { offsetInCU: 0x8E78, offset: 0x69595, size: 0x8, addend: 0x0, symName: '__ZN4core3ptr42drop_in_place$LT$std..io..error..Error$GT$17h6eaed3de1a68fc27E', symObjAddr: 0x30E4, symBinAddr: 0x18334, symSize: 0xAC }
  - { offsetInCU: 0x909C, offset: 0x697B9, size: 0x8, addend: 0x0, symName: '__ZN4core3ptr44drop_in_place$LT$object..read..ObjectMap$GT$17h345270448c1dcd1eE', symObjAddr: 0x3190, symBinAddr: 0x183E0, symSize: 0x58 }
  - { offsetInCU: 0x91CA, offset: 0x698E7, size: 0x8, addend: 0x0, symName: '__ZN4core3ptr46drop_in_place$LT$alloc..vec..Vec$LT$u8$GT$$GT$17ha0b9c586cb14c7a9E', symObjAddr: 0x3254, symBinAddr: 0x18438, symSize: 0x28 }
  - { offsetInCU: 0x9255, offset: 0x69972, size: 0x8, addend: 0x0, symName: '__ZN4core3ptr46drop_in_place$LT$std..io..stdio..StdinLock$GT$17h03bef29bedeac060E', symObjAddr: 0x327C, symBinAddr: 0x18460, symSize: 0x54 }
  - { offsetInCU: 0x926C, offset: 0x69989, size: 0x8, addend: 0x0, symName: '__ZN4core3ptr46drop_in_place$LT$std..io..stdio..StdinLock$GT$17h03bef29bedeac060E', symObjAddr: 0x327C, symBinAddr: 0x18460, symSize: 0x54 }
  - { offsetInCU: 0x9281, offset: 0x6999E, size: 0x8, addend: 0x0, symName: '__ZN4core3ptr46drop_in_place$LT$std..io..stdio..StdinLock$GT$17h03bef29bedeac060E', symObjAddr: 0x327C, symBinAddr: 0x18460, symSize: 0x54 }
  - { offsetInCU: 0x936F, offset: 0x69A8C, size: 0x8, addend: 0x0, symName: '__ZN4core3ptr48drop_in_place$LT$alloc..ffi..c_str..NulError$GT$17h55bf197df7c263feE', symObjAddr: 0x3328, symBinAddr: 0x184B4, symSize: 0x28 }
  - { offsetInCU: 0x9492, offset: 0x69BAF, size: 0x8, addend: 0x0, symName: '__ZN4core3ptr55drop_in_place$LT$gimli..read..abbrev..Abbreviations$GT$17h867206a394c8cc38E', symObjAddr: 0x361C, symBinAddr: 0x184DC, symSize: 0x118 }
  - { offsetInCU: 0x9822, offset: 0x69F3F, size: 0x8, addend: 0x0, symName: '__ZN4core3ptr60drop_in_place$LT$gimli..read..abbrev..AbbreviationsCache$GT$17h44dc2b6c4ea316a8E', symObjAddr: 0x37C4, symBinAddr: 0x185F4, symSize: 0xCC }
  - { offsetInCU: 0x99E1, offset: 0x6A0FE, size: 0x8, addend: 0x0, symName: '__ZN4core3ptr64drop_in_place$LT$std..sys..pal..unix..sync..mutex..AttrGuard$GT$17he4e3956a1b6d387aE', symObjAddr: 0x3890, symBinAddr: 0x186C0, symSize: 0x48 }
  - { offsetInCU: 0x9A1C, offset: 0x6A139, size: 0x8, addend: 0x0, symName: '__ZN4core3ptr65drop_in_place$LT$alloc..vec..Vec$LT$alloc..string..String$GT$$GT$17h5fd512c568048efaE', symObjAddr: 0x39A4, symBinAddr: 0x18708, symSize: 0x80 }
  - { offsetInCU: 0x9BB3, offset: 0x6A2D0, size: 0x8, addend: 0x0, symName: '__ZN4core3ptr65drop_in_place$LT$std..backtrace_rs..symbolize..gimli..Context$GT$17h51ee190b11f008edE', symObjAddr: 0x3A24, symBinAddr: 0x18788, symSize: 0xE8 }
  - { offsetInCU: 0x9E44, offset: 0x6A561, size: 0x8, addend: 0x0, symName: '__ZN4core3ptr66drop_in_place$LT$std..backtrace_rs..backtrace..libunwind..Bomb$GT$17h9a2706bb059b685dE', symObjAddr: 0x3B64, symBinAddr: 0x18870, symSize: 0x40 }
  - { offsetInCU: 0x9EF6, offset: 0x6A613, size: 0x8, addend: 0x0, symName: '__ZN4core3ptr70drop_in_place$LT$std..backtrace_rs..symbolize..gimli..stash..Stash$GT$17h4e76ef07d7571563E', symObjAddr: 0x3D34, symBinAddr: 0x188B0, symSize: 0xB8 }
  - { offsetInCU: 0xA199, offset: 0x6A8B6, size: 0x8, addend: 0x0, symName: '__ZN4core3ptr71drop_in_place$LT$std..backtrace_rs..symbolize..gimli..macho..Object$GT$17hcca5e8f094dc5e55E', symObjAddr: 0x3DEC, symBinAddr: 0x18968, symSize: 0xD8 }
  - { offsetInCU: 0xA46A, offset: 0x6AB87, size: 0x8, addend: 0x0, symName: '__ZN4core3ptr71drop_in_place$LT$std..panicking..rust_panic_without_hook..RewrapBox$GT$17h89646713c1af5c51E', symObjAddr: 0x3EC4, symBinAddr: 0x18A40, symSize: 0x6C }
  - { offsetInCU: 0xA562, offset: 0x6AC7F, size: 0x8, addend: 0x0, symName: '__ZN4core3ptr72drop_in_place$LT$core..option..Option$LT$object..read..ObjectMap$GT$$GT$17hb94fcc0695d2e650E', symObjAddr: 0x3F30, symBinAddr: 0x18AAC, symSize: 0x64 }
  - { offsetInCU: 0xA6DA, offset: 0x6ADF7, size: 0x8, addend: 0x0, symName: '__ZN4core3ptr73drop_in_place$LT$alloc..vec..Vec$LT$addr2line..line..LineSequence$GT$$GT$17h00906be9a3723ef2E', symObjAddr: 0x3F94, symBinAddr: 0x18B10, symSize: 0x84 }
  - { offsetInCU: 0xA831, offset: 0x6AF4E, size: 0x8, addend: 0x0, symName: '__ZN4core3ptr77drop_in_place$LT$alloc..boxed..Box$LT$$u5b$alloc..string..String$u5d$$GT$$GT$17h5a958efaaeaa9907E', symObjAddr: 0x4070, symBinAddr: 0x18B94, symSize: 0x70 }
  - { offsetInCU: 0xA848, offset: 0x6AF65, size: 0x8, addend: 0x0, symName: '__ZN4core3ptr77drop_in_place$LT$alloc..boxed..Box$LT$$u5b$alloc..string..String$u5d$$GT$$GT$17h5a958efaaeaa9907E', symObjAddr: 0x4070, symBinAddr: 0x18B94, symSize: 0x70 }
  - { offsetInCU: 0xA951, offset: 0x6B06E, size: 0x8, addend: 0x0, symName: '__ZN4core3ptr77drop_in_place$LT$std..panicking..begin_panic_handler..FormatStringPayload$GT$17h537369fbedbf930cE', symObjAddr: 0x40E0, symBinAddr: 0x18C04, symSize: 0x34 }
  - { offsetInCU: 0xAA0C, offset: 0x6B129, size: 0x8, addend: 0x0, symName: '__ZN4core3ptr79drop_in_place$LT$std..sync..poison..rwlock..RwLockReadGuard$LT$$LP$$RP$$GT$$GT$17h939f762834f73cbaE', symObjAddr: 0x4138, symBinAddr: 0x18C38, symSize: 0x68 }
  - { offsetInCU: 0xAAA5, offset: 0x6B1C2, size: 0x8, addend: 0x0, symName: '__ZN4core3ptr81drop_in_place$LT$$LP$usize$C$std..backtrace_rs..symbolize..gimli..Mapping$RP$$GT$17h9059ed5e9ac01088E', symObjAddr: 0x41A0, symBinAddr: 0x18CA0, symSize: 0x54 }
  - { offsetInCU: 0xAB25, offset: 0x6B242, size: 0x8, addend: 0x0, symName: '__ZN4core3ptr81drop_in_place$LT$core..result..Result$LT$$LP$$RP$$C$std..io..error..Error$GT$$GT$17h5f7e1001b8de9c47E', symObjAddr: 0x41F4, symBinAddr: 0x18CF4, symSize: 0x20 }
  - { offsetInCU: 0xAB52, offset: 0x6B26F, size: 0x8, addend: 0x0, symName: '__ZN4core3ptr82drop_in_place$LT$alloc..sync..ArcInner$LT$std..sys..fs..unix..InnerReadDir$GT$$GT$17h4865c64f267fff12E', symObjAddr: 0x4214, symBinAddr: 0x18D14, symSize: 0x60 }
  - { offsetInCU: 0xAD35, offset: 0x6B452, size: 0x8, addend: 0x0, symName: '__ZN4core3ptr88drop_in_place$LT$alloc..vec..Vec$LT$std..backtrace_rs..symbolize..gimli..Library$GT$$GT$17h482314aa02e01716E', symObjAddr: 0x431C, symBinAddr: 0x18D74, symSize: 0x98 }
  - { offsetInCU: 0xAF54, offset: 0x6B671, size: 0x8, addend: 0x0, symName: '__ZN4core3ptr92drop_in_place$LT$core..result..Result$LT$addr2line..line..Lines$C$gimli..read..Error$GT$$GT$17ha5e5836f32cfa4d5E', symObjAddr: 0x4490, symBinAddr: 0x18E0C, symSize: 0xE4 }
  - { offsetInCU: 0xB198, offset: 0x6B8B5, size: 0x8, addend: 0x0, symName: '__ZN4core3ptr93drop_in_place$LT$core..option..Option$LT$std..backtrace_rs..symbolize..gimli..Mapping$GT$$GT$17h88a567863af63cb1E', symObjAddr: 0x4574, symBinAddr: 0x18EF0, symSize: 0x6C }
  - { offsetInCU: 0xB232, offset: 0x6B94F, size: 0x8, addend: 0x0, symName: '__ZN4core3ptr95drop_in_place$LT$core..option..IntoIter$LT$std..backtrace_rs..symbolize..gimli..Library$GT$$GT$17h62a42ae9da146dc8E', symObjAddr: 0x468C, symBinAddr: 0x18F5C, symSize: 0x5C }
  - { offsetInCU: 0xB250, offset: 0x6B96D, size: 0x8, addend: 0x0, symName: '__ZN4core3ptr95drop_in_place$LT$core..option..IntoIter$LT$std..backtrace_rs..symbolize..gimli..Library$GT$$GT$17h62a42ae9da146dc8E', symObjAddr: 0x468C, symBinAddr: 0x18F5C, symSize: 0x5C }
  - { offsetInCU: 0xB265, offset: 0x6B982, size: 0x8, addend: 0x0, symName: '__ZN4core3ptr95drop_in_place$LT$core..option..IntoIter$LT$std..backtrace_rs..symbolize..gimli..Library$GT$$GT$17h62a42ae9da146dc8E', symObjAddr: 0x468C, symBinAddr: 0x18F5C, symSize: 0x5C }
  - { offsetInCU: 0xCDF0, offset: 0x6D50D, size: 0x8, addend: 0x0, symName: __ZN4core5slice4sort6shared5pivot11median3_rec17h14349ccf02bae3b4E, symObjAddr: 0x4AB8, symBinAddr: 0x18FCC, symSize: 0xCC }
  - { offsetInCU: 0xCF11, offset: 0x6D62E, size: 0x8, addend: 0x0, symName: __ZN4core5slice4sort6shared5pivot11median3_rec17h2c0e496f8f14122cE, symObjAddr: 0x4B84, symBinAddr: 0x19098, symSize: 0xCC }
  - { offsetInCU: 0xD006, offset: 0x6D723, size: 0x8, addend: 0x0, symName: __ZN4core5slice4sort6shared5pivot11median3_rec17h30f37f3188a7b7f6E, symObjAddr: 0x4C50, symBinAddr: 0x19164, symSize: 0x11C }
  - { offsetInCU: 0xD0FC, offset: 0x6D819, size: 0x8, addend: 0x0, symName: __ZN4core5slice4sort6shared5pivot11median3_rec17h563f1c8c495632b5E, symObjAddr: 0x4D6C, symBinAddr: 0x19280, symSize: 0x134 }
  - { offsetInCU: 0xD31F, offset: 0x6DA3C, size: 0x8, addend: 0x0, symName: __ZN4core5slice4sort6shared5pivot11median3_rec17h9710ad16417d2d77E, symObjAddr: 0x4EA0, symBinAddr: 0x193B4, symSize: 0xD0 }
  - { offsetInCU: 0xD416, offset: 0x6DB33, size: 0x8, addend: 0x0, symName: __ZN4core5slice4sort6shared5pivot11median3_rec17h9fefbd4a79adf9cfE, symObjAddr: 0x4F70, symBinAddr: 0x19484, symSize: 0xCC }
  - { offsetInCU: 0xD50B, offset: 0x6DC28, size: 0x8, addend: 0x0, symName: __ZN4core5slice4sort6shared5pivot11median3_rec17hc5de4be5af013d82E, symObjAddr: 0x503C, symBinAddr: 0x19550, symSize: 0xD0 }
  - { offsetInCU: 0xD600, offset: 0x6DD1D, size: 0x8, addend: 0x0, symName: __ZN4core5slice4sort6shared5pivot11median3_rec17he85cee1f3d5f3182E, symObjAddr: 0x510C, symBinAddr: 0x19620, symSize: 0xD0 }
  - { offsetInCU: 0xD74F, offset: 0x6DE6C, size: 0x8, addend: 0x0, symName: __ZN4core5slice4sort6shared9smallsort12sort4_stable17h71d9540988184691E, symObjAddr: 0x51DC, symBinAddr: 0x196F0, symSize: 0x1B4 }
  - { offsetInCU: 0xD8ED, offset: 0x6E00A, size: 0x8, addend: 0x0, symName: __ZN4core5slice4sort6shared9smallsort12sort4_stable17hd74cc4323b668d4bE, symObjAddr: 0x5390, symBinAddr: 0x198A4, symSize: 0x180 }
  - { offsetInCU: 0xDD09, offset: 0x6E426, size: 0x8, addend: 0x0, symName: __ZN4core5slice4sort6shared9smallsort12sort8_stable17h07ed73903095b914E, symObjAddr: 0x5510, symBinAddr: 0x19A24, symSize: 0x2B8 }
  - { offsetInCU: 0xE244, offset: 0x6E961, size: 0x8, addend: 0x0, symName: __ZN4core5slice4sort6shared9smallsort18small_sort_general17h4d81c2b3c8c93bc7E, symObjAddr: 0x57C8, symBinAddr: 0x19CDC, symSize: 0x3FC }
  - { offsetInCU: 0xE7A1, offset: 0x6EEBE, size: 0x8, addend: 0x0, symName: __ZN4core5slice4sort6shared9smallsort18small_sort_general17h66694c255597485bE, symObjAddr: 0x5BC4, symBinAddr: 0x1A0D8, symSize: 0x4A0 }
  - { offsetInCU: 0xEE8E, offset: 0x6F5AB, size: 0x8, addend: 0x0, symName: __ZN4core5slice4sort6shared9smallsort25insertion_sort_shift_left17h7eed202f5a5ea3d6E, symObjAddr: 0x6064, symBinAddr: 0x1A578, symSize: 0xB4 }
  - { offsetInCU: 0xEF64, offset: 0x6F681, size: 0x8, addend: 0x0, symName: __ZN4core5slice4sort6shared9smallsort25insertion_sort_shift_left17ha3c39395a6af6a1fE, symObjAddr: 0x6118, symBinAddr: 0x1A62C, symSize: 0xA0 }
  - { offsetInCU: 0xF02D, offset: 0x6F74A, size: 0x8, addend: 0x0, symName: __ZN4core5slice4sort6shared9smallsort25insertion_sort_shift_left17haa089a8ef3b54e3bE, symObjAddr: 0x61B8, symBinAddr: 0x1A6CC, symSize: 0xF4 }
  - { offsetInCU: 0xF1F1, offset: 0x6F90E, size: 0x8, addend: 0x0, symName: __ZN4core5slice4sort6shared9smallsort25insertion_sort_shift_left17hb99e06877f689128E, symObjAddr: 0x62AC, symBinAddr: 0x1A7C0, symSize: 0xA4 }
  - { offsetInCU: 0xF2C7, offset: 0x6F9E4, size: 0x8, addend: 0x0, symName: __ZN4core5slice4sort6shared9smallsort25insertion_sort_shift_left17hce73e80c189a281aE, symObjAddr: 0x6350, symBinAddr: 0x1A864, symSize: 0xC4 }
  - { offsetInCU: 0xF656, offset: 0x6FD73, size: 0x8, addend: 0x0, symName: __ZN4core5slice4sort6stable14driftsort_main17h0c5af19f63a83a52E, symObjAddr: 0x6414, symBinAddr: 0x1A928, symSize: 0x148 }
  - { offsetInCU: 0xF8F8, offset: 0x70015, size: 0x8, addend: 0x0, symName: __ZN4core5slice4sort6stable14driftsort_main17h3ef69b45ff60fc5eE, symObjAddr: 0x655C, symBinAddr: 0x1AA70, symSize: 0x148 }
  - { offsetInCU: 0xFB9A, offset: 0x702B7, size: 0x8, addend: 0x0, symName: __ZN4core5slice4sort6stable14driftsort_main17h66204e7846629f37E, symObjAddr: 0x66A4, symBinAddr: 0x1ABB8, symSize: 0x148 }
  - { offsetInCU: 0xFDBA, offset: 0x704D7, size: 0x8, addend: 0x0, symName: __ZN4core5slice4sort6stable14driftsort_main17h7240e99271316c8dE, symObjAddr: 0x67EC, symBinAddr: 0x1AD00, symSize: 0x148 }
  - { offsetInCU: 0x1005C, offset: 0x70779, size: 0x8, addend: 0x0, symName: __ZN4core5slice4sort6stable14driftsort_main17h868ab94dba70308fE, symObjAddr: 0x6934, symBinAddr: 0x1AE48, symSize: 0x16C }
  - { offsetInCU: 0x10354, offset: 0x70A71, size: 0x8, addend: 0x0, symName: __ZN4core5slice4sort6stable14driftsort_main17h99bb3e91c5a1eaf1E, symObjAddr: 0x6AA0, symBinAddr: 0x1AFB4, symSize: 0x16C }
  - { offsetInCU: 0x1081A, offset: 0x70F37, size: 0x8, addend: 0x0, symName: __ZN4core5slice4sort6stable5drift4sort17h3f34c76901413381E, symObjAddr: 0x6C0C, symBinAddr: 0x1B120, symSize: 0x5EC }
  - { offsetInCU: 0x10E7E, offset: 0x7159B, size: 0x8, addend: 0x0, symName: __ZN4core5slice4sort6stable5drift4sort17h7dcb5140dc9719eaE, symObjAddr: 0x71F8, symBinAddr: 0x1B70C, symSize: 0x690 }
  - { offsetInCU: 0x11526, offset: 0x71C43, size: 0x8, addend: 0x0, symName: __ZN4core5slice4sort6stable5drift4sort17h8c2c299692fde826E, symObjAddr: 0x7888, symBinAddr: 0x1BD9C, symSize: 0x594 }
  - { offsetInCU: 0x11B9E, offset: 0x722BB, size: 0x8, addend: 0x0, symName: __ZN4core5slice4sort6stable5drift4sort17ha85cbcbd2d054b93E, symObjAddr: 0x7E1C, symBinAddr: 0x1C330, symSize: 0x594 }
  - { offsetInCU: 0x12216, offset: 0x72933, size: 0x8, addend: 0x0, symName: __ZN4core5slice4sort6stable5drift4sort17hc21241fc891bb43bE, symObjAddr: 0x83B0, symBinAddr: 0x1C8C4, symSize: 0x4E0 }
  - { offsetInCU: 0x12825, offset: 0x72F42, size: 0x8, addend: 0x0, symName: __ZN4core5slice4sort6stable5drift4sort17hd2850791c71092f0E, symObjAddr: 0x8890, symBinAddr: 0x1CDA4, symSize: 0x538 }
  - { offsetInCU: 0x130C8, offset: 0x737E5, size: 0x8, addend: 0x0, symName: __ZN4core5slice4sort6stable9quicksort9quicksort17h49d39bc61b210989E, symObjAddr: 0x8DC8, symBinAddr: 0x1D2DC, symSize: 0x6DC }
  - { offsetInCU: 0x13B76, offset: 0x74293, size: 0x8, addend: 0x0, symName: __ZN4core5slice4sort6stable9quicksort9quicksort17h4faeb33eb32986acE, symObjAddr: 0x94A4, symBinAddr: 0x1D9B8, symSize: 0x74C }
  - { offsetInCU: 0x142A1, offset: 0x749BE, size: 0x8, addend: 0x0, symName: __ZN4core5slice4sort6stable9quicksort9quicksort17h6664410e15b25b55E, symObjAddr: 0x9BF0, symBinAddr: 0x1E104, symSize: 0x6D4 }
  - { offsetInCU: 0x14D4F, offset: 0x7546C, size: 0x8, addend: 0x0, symName: __ZN4core5slice4sort6stable9quicksort9quicksort17h7d38be7f6c60b36fE, symObjAddr: 0xA2C4, symBinAddr: 0x1E7D8, symSize: 0x80C }
  - { offsetInCU: 0x15933, offset: 0x76050, size: 0x8, addend: 0x0, symName: __ZN4core5slice4sort6stable9quicksort9quicksort17hcb41f229116ccc51E, symObjAddr: 0xAAD0, symBinAddr: 0x1EFE4, symSize: 0x830 }
  - { offsetInCU: 0x16525, offset: 0x76C42, size: 0x8, addend: 0x0, symName: __ZN4core5slice4sort6stable9quicksort9quicksort17hed71673f3f817089E, symObjAddr: 0xB300, symBinAddr: 0x1F814, symSize: 0x82C }
  - { offsetInCU: 0x174DB, offset: 0x77BF8, size: 0x8, addend: 0x0, symName: __ZN4core5slice4sort8unstable7ipnsort17h2aa0f3630e3bdbbbE, symObjAddr: 0xBB2C, symBinAddr: 0x20040, symSize: 0x260 }
  - { offsetInCU: 0x1776D, offset: 0x77E8A, size: 0x8, addend: 0x0, symName: __ZN4core5slice4sort8unstable7ipnsort17hd53368890cf73f83E, symObjAddr: 0xBD8C, symBinAddr: 0x202A0, symSize: 0x1B4 }
  - { offsetInCU: 0x1788F, offset: 0x77FAC, size: 0x8, addend: 0x0, symName: __ZN4core5slice4sort8unstable8heapsort8heapsort17h3f6cbd4346991d74E, symObjAddr: 0xBF40, symBinAddr: 0x20454, symSize: 0x160 }
  - { offsetInCU: 0x17B9E, offset: 0x782BB, size: 0x8, addend: 0x0, symName: __ZN4core5slice4sort8unstable8heapsort8heapsort17h7433f7b2c7ba25f0E, symObjAddr: 0xC0A0, symBinAddr: 0x205B4, symSize: 0x10C }
  - { offsetInCU: 0x17E21, offset: 0x7853E, size: 0x8, addend: 0x0, symName: __ZN4core5slice4sort8unstable9quicksort9quicksort17h01b64d9a2cd57833E, symObjAddr: 0xC1AC, symBinAddr: 0x206C0, symSize: 0x408 }
  - { offsetInCU: 0x186CF, offset: 0x78DEC, size: 0x8, addend: 0x0, symName: __ZN4core5slice4sort8unstable9quicksort9quicksort17h6c12c47a88b91bdcE, symObjAddr: 0xC5B4, symBinAddr: 0x20AC8, symSize: 0x598 }
  - { offsetInCU: 0x19359, offset: 0x79A76, size: 0x8, addend: 0x0, symName: '__ZN36_$LT$T$u20$as$u20$core..any..Any$GT$7type_id17h4ec47919a6681e40E', symObjAddr: 0x13C, symBinAddr: 0x16B04, symSize: 0x30 }
  - { offsetInCU: 0x19372, offset: 0x79A8F, size: 0x8, addend: 0x0, symName: '__ZN36_$LT$T$u20$as$u20$core..any..Any$GT$7type_id17h7883d1176de1ea52E', symObjAddr: 0x16C, symBinAddr: 0x16B34, symSize: 0x30 }
  - { offsetInCU: 0x1938B, offset: 0x79AA8, size: 0x8, addend: 0x0, symName: '__ZN36_$LT$T$u20$as$u20$core..any..Any$GT$7type_id17haef7e18d60a58147E', symObjAddr: 0x19C, symBinAddr: 0x16B64, symSize: 0x30 }
  - { offsetInCU: 0x193F3, offset: 0x79B10, size: 0x8, addend: 0x0, symName: '__ZN42_$LT$$RF$T$u20$as$u20$core..fmt..Debug$GT$3fmt17h704e9983a8ad7194E', symObjAddr: 0x594, symBinAddr: 0x16B94, symSize: 0x30 }
  - { offsetInCU: 0x19438, offset: 0x79B55, size: 0x8, addend: 0x0, symName: '__ZN42_$LT$$RF$T$u20$as$u20$core..fmt..Debug$GT$3fmt17h7953b06a2bf94b16E', symObjAddr: 0x5C4, symBinAddr: 0x16BC4, symSize: 0x74 }
  - { offsetInCU: 0x1954E, offset: 0x79C6B, size: 0x8, addend: 0x0, symName: '__ZN42_$LT$$RF$T$u20$as$u20$core..fmt..Debug$GT$3fmt17ha3c56c4833c00c0dE', symObjAddr: 0x7D4, symBinAddr: 0x16C38, symSize: 0x1C }
  - { offsetInCU: 0x1957E, offset: 0x79C9B, size: 0x8, addend: 0x0, symName: '__ZN42_$LT$$RF$T$u20$as$u20$core..fmt..Debug$GT$3fmt17hbdae2b60cc55f27dE', symObjAddr: 0xA9C, symBinAddr: 0x16C54, symSize: 0x1C }
  - { offsetInCU: 0x19591, offset: 0x79CAE, size: 0x8, addend: 0x0, symName: '__ZN42_$LT$$RF$T$u20$as$u20$core..fmt..Debug$GT$3fmt17he40d59981629ace8E', symObjAddr: 0xB08, symBinAddr: 0x16C70, symSize: 0x30 }
  - { offsetInCU: 0x19660, offset: 0x79D7D, size: 0x8, addend: 0x0, symName: '__ZN4core3fmt3num50_$LT$impl$u20$core..fmt..Debug$u20$for$u20$i32$GT$3fmt17h766d077a50a692a7E', symObjAddr: 0xCF0, symBinAddr: 0x16D24, symSize: 0x2C }
  - { offsetInCU: 0x196A0, offset: 0x79DBD, size: 0x8, addend: 0x0, symName: '__ZN4core3fmt3num52_$LT$impl$u20$core..fmt..Debug$u20$for$u20$usize$GT$3fmt17h6b292ac6ae94bc1aE', symObjAddr: 0xDA0, symBinAddr: 0x16D50, symSize: 0x2C }
  - { offsetInCU: 0x19959, offset: 0x7A076, size: 0x8, addend: 0x0, symName: '__ZN44_$LT$$RF$T$u20$as$u20$core..fmt..Display$GT$3fmt17h4317d4d67be27743E', symObjAddr: 0xC20, symBinAddr: 0x16CA0, symSize: 0x68 }
  - { offsetInCU: 0x19A39, offset: 0x7A156, size: 0x8, addend: 0x0, symName: '__ZN44_$LT$$RF$T$u20$as$u20$core..fmt..Display$GT$3fmt17he5966276efd85052E', symObjAddr: 0xC88, symBinAddr: 0x16D08, symSize: 0x1C }
  - { offsetInCU: 0x19A74, offset: 0x7A191, size: 0x8, addend: 0x0, symName: __ZN4core3fmt5Write10write_char17h14aae05cbbc57734E, symObjAddr: 0xDCC, symBinAddr: 0x16D7C, symSize: 0x128 }
  - { offsetInCU: 0x19C0A, offset: 0x7A327, size: 0x8, addend: 0x0, symName: __ZN4core3fmt5Write10write_char17h16843411eefe03e5E, symObjAddr: 0xEF4, symBinAddr: 0x16EA4, symSize: 0x150 }
  - { offsetInCU: 0x19D90, offset: 0x7A4AD, size: 0x8, addend: 0x0, symName: __ZN4core3fmt5Write10write_char17h840ffa33473941b1E, symObjAddr: 0x1044, symBinAddr: 0x16FF4, symSize: 0x140 }
  - { offsetInCU: 0x19DF4, offset: 0x7A511, size: 0x8, addend: 0x0, symName: __ZN4core3fmt5Write10write_char17hd8cfca80322a1280E, symObjAddr: 0x1444, symBinAddr: 0x17134, symSize: 0x180 }
  - { offsetInCU: 0x19FD9, offset: 0x7A6F6, size: 0x8, addend: 0x0, symName: __ZN4core3fmt5Write9write_fmt17h1513b05757024b13E, symObjAddr: 0x15C4, symBinAddr: 0x172B4, symSize: 0x1C }
  - { offsetInCU: 0x1A007, offset: 0x7A724, size: 0x8, addend: 0x0, symName: __ZN4core3fmt5Write9write_fmt17h16ce510a04dd45b0E, symObjAddr: 0x15E0, symBinAddr: 0x172D0, symSize: 0x1C }
  - { offsetInCU: 0x1A035, offset: 0x7A752, size: 0x8, addend: 0x0, symName: __ZN4core3fmt5Write9write_fmt17h371b960946387068E, symObjAddr: 0x1618, symBinAddr: 0x172EC, symSize: 0x1C }
  - { offsetInCU: 0x1A063, offset: 0x7A780, size: 0x8, addend: 0x0, symName: __ZN4core3fmt5Write9write_fmt17h6cb3365e3a563bd1E, symObjAddr: 0x1634, symBinAddr: 0x17308, symSize: 0x1C }
  - { offsetInCU: 0x1A091, offset: 0x7A7AE, size: 0x8, addend: 0x0, symName: __ZN4core3fmt5Write9write_fmt17haa9b5469749bdf94E, symObjAddr: 0x1650, symBinAddr: 0x17324, symSize: 0x1C }
  - { offsetInCU: 0x1A0EB, offset: 0x7A808, size: 0x8, addend: 0x0, symName: '__ZN50_$LT$$BP$mut$u20$T$u20$as$u20$core..fmt..Debug$GT$3fmt17h2dbc081f80b73c08E', symObjAddr: 0xCBC8, symBinAddr: 0x21060, symSize: 0x14 }
  - { offsetInCU: 0x1A137, offset: 0x7A854, size: 0x8, addend: 0x0, symName: '__ZN52_$LT$$RF$mut$u20$T$u20$as$u20$core..fmt..Display$GT$3fmt17h7e599f3e7379a61fE', symObjAddr: 0xCC50, symBinAddr: 0x21074, symSize: 0x1C }
  - { offsetInCU: 0x1A170, offset: 0x7A88D, size: 0x8, addend: 0x0, symName: '__ZN55_$LT$$RF$str$u20$as$u20$core..str..pattern..Pattern$GT$15is_contained_in17h6033bd6586ebe53cE', symObjAddr: 0xCC6C, symBinAddr: 0x21090, symSize: 0x3C0 }
  - { offsetInCU: 0x1AEDC, offset: 0x7B5F9, size: 0x8, addend: 0x0, symName: __ZN4core5panic12PanicPayload6as_str17h5d17ec91bd9f880cE, symObjAddr: 0x4AA4, symBinAddr: 0x18FB8, symSize: 0x14 }
  - { offsetInCU: 0x1BD63, offset: 0x7C480, size: 0x8, addend: 0x0, symName: '__ZN4core3ops8function6FnOnce40call_once$u7b$$u7b$vtable.shim$u7d$$u7d$17h4c877604a12e7d2bE', symObjAddr: 0x17DC, symBinAddr: 0x17340, symSize: 0xA4 }
  - { offsetInCU: 0x1BEA7, offset: 0x7C5C4, size: 0x8, addend: 0x0, symName: '__ZN4core3ops8function6FnOnce40call_once$u7b$$u7b$vtable.shim$u7d$$u7d$17h5fdb408b2f0e2df5E', symObjAddr: 0x1880, symBinAddr: 0x173E4, symSize: 0x10 }
  - { offsetInCU: 0x1BEE1, offset: 0x7C5FE, size: 0x8, addend: 0x0, symName: '__ZN4core3ops8function6FnOnce40call_once$u7b$$u7b$vtable.shim$u7d$$u7d$17h840a1a85c296faedE', symObjAddr: 0x18F4, symBinAddr: 0x173F4, symSize: 0x10 }
  - { offsetInCU: 0x1BF1B, offset: 0x7C638, size: 0x8, addend: 0x0, symName: '__ZN4core3ops8function6FnOnce40call_once$u7b$$u7b$vtable.shim$u7d$$u7d$17hb9c0b74f2575f386E', symObjAddr: 0x1904, symBinAddr: 0x17404, symSize: 0x18 }
  - { offsetInCU: 0x1BF6A, offset: 0x7C687, size: 0x8, addend: 0x0, symName: '__ZN4core3ops8function6FnOnce40call_once$u7b$$u7b$vtable.shim$u7d$$u7d$17hc523b59a4e30023aE', symObjAddr: 0x191C, symBinAddr: 0x1741C, symSize: 0x18 }
  - { offsetInCU: 0x1E085, offset: 0x7E7A2, size: 0x8, addend: 0x0, symName: '__ZN4core4cell4once17OnceCell$LT$T$GT$8try_init17hc3cf43d3b1152facE', symObjAddr: 0x47E0, symBinAddr: 0x4A81C, symSize: 0x120 }
  - { offsetInCU: 0x1E558, offset: 0x7EC75, size: 0x8, addend: 0x0, symName: __ZN4core9panicking13assert_failed17ha0818e3fa5492a02E, symObjAddr: 0xCB70, symBinAddr: 0x4A93C, symSize: 0x24 }
  - { offsetInCU: 0x1E87E, offset: 0x7EF9B, size: 0x8, addend: 0x0, symName: __ZN3std9panicking11panic_count8increase17h24ba6cec0c4ecc6eE, symObjAddr: 0x39FE8, symBinAddr: 0x33650, symSize: 0x80 }
  - { offsetInCU: 0x1E95B, offset: 0x7F078, size: 0x8, addend: 0x0, symName: __ZN3std9panicking11panic_count17is_zero_slow_path17hb6306b39f3996e74E, symObjAddr: 0x3A100, symBinAddr: 0x4AFE8, symSize: 0x2C }
  - { offsetInCU: 0x1E9F5, offset: 0x7F112, size: 0x8, addend: 0x0, symName: __ZN3std9panicking3try7cleanup17hcfd980b77a21a305E, symObjAddr: 0x3A12C, symBinAddr: 0x4B014, symSize: 0x54 }
  - { offsetInCU: 0x1EAFD, offset: 0x7F21A, size: 0x8, addend: 0x0, symName: __RNvCscSpY9Juk0HT_7___rustc17___rust_drop_panic, symObjAddr: 0x39630, symBinAddr: 0x32F04, symSize: 0xBC }
  - { offsetInCU: 0x1ECF3, offset: 0x7F410, size: 0x8, addend: 0x0, symName: __RNvCscSpY9Juk0HT_7___rustc24___rust_foreign_exception, symObjAddr: 0x396EC, symBinAddr: 0x32FC0, symSize: 0xBC }
  - { offsetInCU: 0x1EEE9, offset: 0x7F606, size: 0x8, addend: 0x0, symName: __ZN3std9panicking12default_hook17hd800536ed1df5085E, symObjAddr: 0x39A14, symBinAddr: 0x3307C, symSize: 0x1AC }
  - { offsetInCU: 0x1F1FA, offset: 0x7F917, size: 0x8, addend: 0x0, symName: '__ZN3std9panicking12default_hook28_$u7b$$u7b$closure$u7d$$u7d$17h62595143a6c21f05E', symObjAddr: 0x39BC0, symBinAddr: 0x33228, symSize: 0x1A4 }
  - { offsetInCU: 0x1F3CF, offset: 0x7FAEC, size: 0x8, addend: 0x0, symName: '__ZN3std9panicking12default_hook28_$u7b$$u7b$closure$u7d$$u7d$28_$u7b$$u7b$closure$u7d$$u7d$17h8596521058a8b46dE', symObjAddr: 0x39D64, symBinAddr: 0x333CC, symSize: 0x284 }
  - { offsetInCU: 0x1F840, offset: 0x7FF5D, size: 0x8, addend: 0x0, symName: __RNvCscSpY9Juk0HT_7___rustc17rust_begin_unwind, symObjAddr: 0x3A180, symBinAddr: 0x336D0, symSize: 0x20 }
  - { offsetInCU: 0x1F8A7, offset: 0x7FFC4, size: 0x8, addend: 0x0, symName: '__ZN102_$LT$std..panicking..begin_panic_handler..FormatStringPayload$u20$as$u20$core..panic..PanicPayload$GT$8take_box17hbc9740e0419d52d3E', symObjAddr: 0x3A1A0, symBinAddr: 0x336F0, symSize: 0x120 }
  - { offsetInCU: 0x1FB23, offset: 0x80240, size: 0x8, addend: 0x0, symName: '__ZN102_$LT$std..panicking..begin_panic_handler..FormatStringPayload$u20$as$u20$core..panic..PanicPayload$GT$3get17haf8fec660e663b10E', symObjAddr: 0x3A2C0, symBinAddr: 0x33810, symSize: 0xB0 }
  - { offsetInCU: 0x1FC5C, offset: 0x80379, size: 0x8, addend: 0x0, symName: '__ZN95_$LT$std..panicking..begin_panic_handler..FormatStringPayload$u20$as$u20$core..fmt..Display$GT$3fmt17hd6de6760ba6a7cdfE', symObjAddr: 0x3A370, symBinAddr: 0x338C0, symSize: 0x5C }
  - { offsetInCU: 0x1FD59, offset: 0x80476, size: 0x8, addend: 0x0, symName: '__ZN99_$LT$std..panicking..begin_panic_handler..StaticStrPayload$u20$as$u20$core..panic..PanicPayload$GT$8take_box17hbb1089eaaa4baf59E', symObjAddr: 0x3A3CC, symBinAddr: 0x3391C, symSize: 0x50 }
  - { offsetInCU: 0x1FDD0, offset: 0x804ED, size: 0x8, addend: 0x0, symName: '__ZN99_$LT$std..panicking..begin_panic_handler..StaticStrPayload$u20$as$u20$core..panic..PanicPayload$GT$3get17h9393368da65dec05E', symObjAddr: 0x3A41C, symBinAddr: 0x3396C, symSize: 0x18 }
  - { offsetInCU: 0x1FDEB, offset: 0x80508, size: 0x8, addend: 0x0, symName: '__ZN99_$LT$std..panicking..begin_panic_handler..StaticStrPayload$u20$as$u20$core..panic..PanicPayload$GT$6as_str17haf60ff297b8402e6E', symObjAddr: 0x3A434, symBinAddr: 0x33984, symSize: 0x18 }
  - { offsetInCU: 0x1FE0C, offset: 0x80529, size: 0x8, addend: 0x0, symName: '__ZN92_$LT$std..panicking..begin_panic_handler..StaticStrPayload$u20$as$u20$core..fmt..Display$GT$3fmt17h41cfec861c53ed02E', symObjAddr: 0x3A44C, symBinAddr: 0x3399C, symSize: 0x1C }
  - { offsetInCU: 0x1FE28, offset: 0x80545, size: 0x8, addend: 0x0, symName: '__ZN3std9panicking19begin_panic_handler28_$u7b$$u7b$closure$u7d$$u7d$17h39275ef3005e6337E', symObjAddr: 0x3A468, symBinAddr: 0x339B8, symSize: 0xC4 }
  - { offsetInCU: 0x1FF90, offset: 0x806AD, size: 0x8, addend: 0x0, symName: __ZN3std9panicking14payload_as_str17hdfacdc368e2330d6E, symObjAddr: 0x3A618, symBinAddr: 0x33A7C, symSize: 0xB0 }
  - { offsetInCU: 0x20073, offset: 0x80790, size: 0x8, addend: 0x0, symName: __ZN3std9panicking20rust_panic_with_hook17h1882a30575fbb763E, symObjAddr: 0x3A6C8, symBinAddr: 0x33B2C, symSize: 0x394 }
  - { offsetInCU: 0x208EC, offset: 0x81009, size: 0x8, addend: 0x0, symName: __ZN3std9panicking23rust_panic_without_hook17h1134a4df26b4f120E, symObjAddr: 0x3AA5C, symBinAddr: 0x4B068, symSize: 0xD4 }
  - { offsetInCU: 0x20AE5, offset: 0x81202, size: 0x8, addend: 0x0, symName: '__ZN96_$LT$std..panicking..rust_panic_without_hook..RewrapBox$u20$as$u20$core..panic..PanicPayload$GT$8take_box17hac616a8c8ff3f9abE', symObjAddr: 0x3AB30, symBinAddr: 0x33EC0, symSize: 0x28 }
  - { offsetInCU: 0x20B16, offset: 0x81233, size: 0x8, addend: 0x0, symName: '__ZN96_$LT$std..panicking..rust_panic_without_hook..RewrapBox$u20$as$u20$core..panic..PanicPayload$GT$3get17ha452f619c250a4ffE', symObjAddr: 0x3AB58, symBinAddr: 0x33EE8, symSize: 0x18 }
  - { offsetInCU: 0x20B37, offset: 0x81254, size: 0x8, addend: 0x0, symName: '__ZN89_$LT$std..panicking..rust_panic_without_hook..RewrapBox$u20$as$u20$core..fmt..Display$GT$3fmt17h8c07ebb03783c6a2E', symObjAddr: 0x3AB70, symBinAddr: 0x33F00, symSize: 0x20 }
  - { offsetInCU: 0x20B54, offset: 0x81271, size: 0x8, addend: 0x0, symName: __RNvCscSpY9Juk0HT_7___rustc10rust_panic, symObjAddr: 0x3AB90, symBinAddr: 0x4B13C, symSize: 0x60 }
  - { offsetInCU: 0x20BBC, offset: 0x812D9, size: 0x8, addend: 0x0, symName: __ZN3std7process5abort17hf7d59222751e82feE, symObjAddr: 0x353C0, symBinAddr: 0x4ACDC, symSize: 0xC }
  - { offsetInCU: 0x20CED, offset: 0x8140A, size: 0x8, addend: 0x0, symName: __ZN3std3sys3pal4unix2os13env_read_lock17h6b5c600a321e7c38E, symObjAddr: 0x3C96C, symBinAddr: 0x347A8, symSize: 0x23C }
  - { offsetInCU: 0x213F6, offset: 0x81B13, size: 0x8, addend: 0x0, symName: '__ZN3std3sys3pal4unix2os6getenv28_$u7b$$u7b$closure$u7d$$u7d$17hec798fd96d9a9d48E', symObjAddr: 0x3CBA8, symBinAddr: 0x349E4, symSize: 0x150 }
  - { offsetInCU: 0x2160F, offset: 0x81D2C, size: 0x8, addend: 0x0, symName: '__ZN81_$LT$std..sys..pal..unix..sync..mutex..Mutex$u20$as$u20$core..ops..drop..Drop$GT$4drop17h935e99750e823e1cE', symObjAddr: 0x3DC04, symBinAddr: 0x34CCC, symSize: 0x10 }
  - { offsetInCU: 0x2165B, offset: 0x81D78, size: 0x8, addend: 0x0, symName: __ZN3std3sys3pal4unix4sync5mutex5Mutex4init17h6886e9b7534366a4E, symObjAddr: 0x3D96C, symBinAddr: 0x34B34, symSize: 0x16C }
  - { offsetInCU: 0x216F0, offset: 0x81E0D, size: 0x8, addend: 0x0, symName: __ZN3std3sys3pal4unix4sync5mutex5Mutex4lock17h8185b5029977c8ccE, symObjAddr: 0x3DAD8, symBinAddr: 0x34CA0, symSize: 0x1C }
  - { offsetInCU: 0x21703, offset: 0x81E20, size: 0x8, addend: 0x0, symName: __ZN3std3sys3pal4unix4sync5mutex5Mutex6unlock17h4965fa85f81fccfeE, symObjAddr: 0x3DBF4, symBinAddr: 0x34CBC, symSize: 0x10 }
  - { offsetInCU: 0x21734, offset: 0x81E51, size: 0x8, addend: 0x0, symName: __ZN3std3sys3pal4unix4sync5mutex5Mutex4lock4fail17h1c4dba9c60de2798E, symObjAddr: 0x3DAF4, symBinAddr: 0x4B19C, symSize: 0xE4 }
  - { offsetInCU: 0x219B1, offset: 0x820CE, size: 0x8, addend: 0x0, symName: __ZN3std3sys3pal4unix17decode_error_kind17h0dccecedd2dd8fb3E, symObjAddr: 0x3E364, symBinAddr: 0x34CDC, symSize: 0x30 }
  - { offsetInCU: 0x219CA, offset: 0x820E7, size: 0x8, addend: 0x0, symName: __ZN3std3sys3pal4unix14abort_internal17h21ffa6232271560aE, symObjAddr: 0x3E394, symBinAddr: 0x4B280, symSize: 0xC }
  - { offsetInCU: 0x21A2C, offset: 0x82149, size: 0x8, addend: 0x0, symName: __ZN3std3sys3pal6common14small_c_string24run_with_cstr_allocating17h18f5291b63b069dcE, symObjAddr: 0x36F38, symBinAddr: 0x4ACE8, symSize: 0xC4 }
  - { offsetInCU: 0x21BF4, offset: 0x82311, size: 0x8, addend: 0x0, symName: __ZN3std3sys3pal6common14small_c_string24run_with_cstr_allocating17h600c1d0c64b1e9c0E, symObjAddr: 0x37198, symBinAddr: 0x4ADAC, symSize: 0xAC }
  - { offsetInCU: 0x21D4F, offset: 0x8246C, size: 0x8, addend: 0x0, symName: __ZN3std3sys3pal6common14small_c_string24run_with_cstr_allocating17hb89d9fc64d3cd22eE, symObjAddr: 0x37244, symBinAddr: 0x4AE58, symSize: 0xA4 }
  - { offsetInCU: 0x21F31, offset: 0x8264E, size: 0x8, addend: 0x0, symName: __ZN3std3sys2fs4unix4File6open_c17had9fca33bf6c5257E, symObjAddr: 0x3ED28, symBinAddr: 0x35180, symSize: 0x1B0 }
  - { offsetInCU: 0x220A3, offset: 0x827C0, size: 0x8, addend: 0x0, symName: '__ZN65_$LT$std..sys..fs..unix..Dir$u20$as$u20$core..ops..drop..Drop$GT$4drop17hc7b5daea677ca335E', symObjAddr: 0x3E9C4, symBinAddr: 0x350B4, symSize: 0xCC }
  - { offsetInCU: 0x22195, offset: 0x828B2, size: 0x8, addend: 0x0, symName: __ZN3std3sys2fs4unix7readdir17h43c852891a66c266E, symObjAddr: 0x3F634, symBinAddr: 0x35330, symSize: 0x1A4 }
  - { offsetInCU: 0x22459, offset: 0x82B76, size: 0x8, addend: 0x0, symName: '__ZN64_$LT$std..sys..stdio..unix..Stderr$u20$as$u20$std..io..Write$GT$5write17h31786671533bdbe2E', symObjAddr: 0x463D0, symBinAddr: 0x354D4, symSize: 0x58 }
  - { offsetInCU: 0x2252E, offset: 0x82C4B, size: 0x8, addend: 0x0, symName: '__ZN64_$LT$std..sys..stdio..unix..Stderr$u20$as$u20$std..io..Write$GT$14write_vectored17h9fef07b05a400ba1E', symObjAddr: 0x46428, symBinAddr: 0x3552C, symSize: 0x58 }
  - { offsetInCU: 0x22603, offset: 0x82D20, size: 0x8, addend: 0x0, symName: '__ZN64_$LT$std..sys..stdio..unix..Stderr$u20$as$u20$std..io..Write$GT$17is_write_vectored17hc1e881d25871dd2dE', symObjAddr: 0x46480, symBinAddr: 0x35584, symSize: 0x14 }
  - { offsetInCU: 0x2261C, offset: 0x82D39, size: 0x8, addend: 0x0, symName: '__ZN64_$LT$std..sys..stdio..unix..Stderr$u20$as$u20$std..io..Write$GT$5flush17h6b18a9e940e09954E', symObjAddr: 0x46494, symBinAddr: 0x35598, symSize: 0x14 }
  - { offsetInCU: 0x2264E, offset: 0x82D6B, size: 0x8, addend: 0x0, symName: '__ZN3std3sys9backtrace10_print_fmt28_$u7b$$u7b$closure$u7d$$u7d$17h4ff80baef69107c8E', symObjAddr: 0x37974, symBinAddr: 0x3274C, symSize: 0x30 }
  - { offsetInCU: 0x22676, offset: 0x82D93, size: 0x8, addend: 0x0, symName: '__ZN3std3sys9backtrace10_print_fmt28_$u7b$$u7b$closure$u7d$$u7d$17hb4c3360616454d0cE', symObjAddr: 0x379A4, symBinAddr: 0x3277C, symSize: 0x130 }
  - { offsetInCU: 0x22788, offset: 0x82EA5, size: 0x8, addend: 0x0, symName: '__ZN3std3sys9backtrace10_print_fmt28_$u7b$$u7b$closure$u7d$$u7d$28_$u7b$$u7b$closure$u7d$$u7d$17he2a33f8005e81697E', symObjAddr: 0x37AD4, symBinAddr: 0x328AC, symSize: 0x25C }
  - { offsetInCU: 0x229C3, offset: 0x830E0, size: 0x8, addend: 0x0, symName: __ZN3std3sys9backtrace4lock17h1eb0aa7b37358a82E, symObjAddr: 0x37688, symBinAddr: 0x32460, symSize: 0x70 }
  - { offsetInCU: 0x22B0A, offset: 0x83227, size: 0x8, addend: 0x0, symName: __ZN3std3sys9backtrace13BacktraceLock5print17h0f497abce563e5d2E, symObjAddr: 0x376F8, symBinAddr: 0x324D0, symSize: 0x54 }
  - { offsetInCU: 0x22B55, offset: 0x83272, size: 0x8, addend: 0x0, symName: '__ZN98_$LT$std..sys..backtrace..BacktraceLock..print..DisplayBacktrace$u20$as$u20$core..fmt..Display$GT$3fmt17h92dda645f072dcafE', symObjAddr: 0x3774C, symBinAddr: 0x32524, symSize: 0x228 }
  - { offsetInCU: 0x23039, offset: 0x83756, size: 0x8, addend: 0x0, symName: __ZN3std3sys9backtrace26__rust_end_short_backtrace17h6ede323c05a76849E, symObjAddr: 0x37D30, symBinAddr: 0x32B08, symSize: 0xC }
  - { offsetInCU: 0x23053, offset: 0x83770, size: 0x8, addend: 0x0, symName: __ZN3std3sys9backtrace15output_filename17hc51084def2b65fccE, symObjAddr: 0x37D48, symBinAddr: 0x32B14, symSize: 0xF4 }
  - { offsetInCU: 0x231DD, offset: 0x838FA, size: 0x8, addend: 0x0, symName: '__ZN3std3sys11personality3gcc14find_eh_action28_$u7b$$u7b$closure$u7d$$u7d$17hf870eeb7eb579837E', symObjAddr: 0x3E3E0, symBinAddr: 0x34D0C, symSize: 0x18 }
  - { offsetInCU: 0x231F0, offset: 0x8390D, size: 0x8, addend: 0x0, symName: '__ZN3std3sys11personality3gcc14find_eh_action28_$u7b$$u7b$closure$u7d$$u7d$17h71d7b4eacfdda92bE', symObjAddr: 0x3E3F8, symBinAddr: 0x34D24, symSize: 0x18 }
  - { offsetInCU: 0x2321D, offset: 0x8393A, size: 0x8, addend: 0x0, symName: _rust_eh_personality, symObjAddr: 0x3E410, symBinAddr: 0x34D3C, symSize: 0x378 }
  - { offsetInCU: 0x2355C, offset: 0x83C79, size: 0x8, addend: 0x0, symName: __ZN3std3sys11personality5dwarf2eh19read_encoded_offset17hc1842286a92688b7E, symObjAddr: 0x37538, symBinAddr: 0x32310, symSize: 0x150 }
  - { offsetInCU: 0x236FA, offset: 0x83E17, size: 0x8, addend: 0x0, symName: '__ZN3std3sys4sync8once_box16OnceBox$LT$T$GT$10initialize17h40de94b3bd8a7de4E', symObjAddr: 0x380C8, symBinAddr: 0x4AEFC, symSize: 0xEC }
  - { offsetInCU: 0x2392B, offset: 0x84048, size: 0x8, addend: 0x0, symName: '__ZN79_$LT$std..sys..sync..mutex..pthread..Mutex$u20$as$u20$core..ops..drop..Drop$GT$4drop17hab28ab8608463f53E', symObjAddr: 0x46698, symBinAddr: 0x355AC, symSize: 0x58 }
  - { offsetInCU: 0x23AB6, offset: 0x841D3, size: 0x8, addend: 0x0, symName: __ZN3std3sys4sync6rwlock5queue6RwLock21read_unlock_contended17hbda97b6f446edad9E, symObjAddr: 0x46FF4, symBinAddr: 0x4B4DC, symSize: 0x50 }
  - { offsetInCU: 0x23C25, offset: 0x84342, size: 0x8, addend: 0x0, symName: __ZN3std3sys4sync6rwlock5queue6RwLock16unlock_contended17h1b39f7222afb6213E, symObjAddr: 0x47044, symBinAddr: 0x4B52C, symSize: 0x50 }
  - { offsetInCU: 0x23D01, offset: 0x8441E, size: 0x8, addend: 0x0, symName: __ZN3std3sys4sync6rwlock5queue6RwLock12unlock_queue17h9e2aa63a1aade71dE, symObjAddr: 0x471A0, symBinAddr: 0x358A8, symSize: 0x1CC }
  - { offsetInCU: 0x243EC, offset: 0x84B09, size: 0x8, addend: 0x0, symName: __ZN3std3sys4sync6rwlock5queue9read_lock17hb4b5d1f913af254cE, symObjAddr: 0x46D94, symBinAddr: 0x3587C, symSize: 0x2C }
  - { offsetInCU: 0x24404, offset: 0x84B21, size: 0x8, addend: 0x0, symName: '__ZN83_$LT$std..sys..sync..rwlock..queue..PanicGuard$u20$as$u20$core..ops..drop..Drop$GT$4drop17hf0a9db44e0d7a760E', symObjAddr: 0x46DC0, symBinAddr: 0x4B498, symSize: 0x44 }
  - { offsetInCU: 0x244B1, offset: 0x84BCE, size: 0x8, addend: 0x0, symName: __ZN3std3sys4sync14thread_parking6darwin6Parker6unpark17h28182714ceb65d18E, symObjAddr: 0x4736C, symBinAddr: 0x35A74, symSize: 0x30 }
  - { offsetInCU: 0x24516, offset: 0x84C33, size: 0x8, addend: 0x0, symName: __ZN3std3sys4sync4once5queue4Once4call17h8b14732a3ae2ba69E, symObjAddr: 0x468F0, symBinAddr: 0x4B28C, symSize: 0x20C }
  - { offsetInCU: 0x247FC, offset: 0x84F19, size: 0x8, addend: 0x0, symName: '__ZN82_$LT$std..sys..sync..once..queue..WaiterQueue$u20$as$u20$core..ops..drop..Drop$GT$4drop17h5c6d09f9d2fbca19E', symObjAddr: 0x46C94, symBinAddr: 0x3579C, symSize: 0xE0 }
  - { offsetInCU: 0x249BD, offset: 0x850DA, size: 0x8, addend: 0x0, symName: __ZN3std3sys4sync4once5queue4wait17h3df29c0a06cad0ceE, symObjAddr: 0x46AFC, symBinAddr: 0x35604, symSize: 0x198 }
  - { offsetInCU: 0x24F96, offset: 0x856B3, size: 0x8, addend: 0x0, symName: __ZN3std3sys12thread_local6native5eager7destroy17hbf30011a476110deE, symObjAddr: 0x47434, symBinAddr: 0x35AA4, symSize: 0x3C }
  - { offsetInCU: 0x250E3, offset: 0x85800, size: 0x8, addend: 0x0, symName: __ZN3std3sys12thread_local5guard5apple6enable9run_dtors17h79584239eb3ee204E, symObjAddr: 0x475B4, symBinAddr: 0x35C24, symSize: 0x13C }
  - { offsetInCU: 0x255F8, offset: 0x85D15, size: 0x8, addend: 0x0, symName: __ZN3std3sys12thread_local11destructors4list8register17h63ccd3ff257e4fcfE, symObjAddr: 0x47470, symBinAddr: 0x35AE0, symSize: 0x144 }
  - { offsetInCU: 0x25AC1, offset: 0x861DE, size: 0x8, addend: 0x0, symName: '__ZN64_$LT$std..ffi..os_str..Display$u20$as$u20$core..fmt..Display$GT$3fmt17h76e7856da8228ab7E', symObjAddr: 0x22DB8, symBinAddr: 0x2F4B8, symSize: 0xAC }
  - { offsetInCU: 0x25C0A, offset: 0x86327, size: 0x8, addend: 0x0, symName: __ZN3std4path4Path13_strip_prefix17hfdef3a8c40c6c7b8E, symObjAddr: 0x33114, symBinAddr: 0x31F48, symSize: 0x21C }
  - { offsetInCU: 0x25D3D, offset: 0x8645A, size: 0x8, addend: 0x0, symName: __ZN3std4path4Path5_join17ha9f8772c63b9385eE, symObjAddr: 0x33940, symBinAddr: 0x32164, symSize: 0x1AC }
  - { offsetInCU: 0x262EE, offset: 0x86A0B, size: 0x8, addend: 0x0, symName: __ZN3std4path10Components15len_before_body17hee71626ac7565c3aE, symObjAddr: 0x315B8, symBinAddr: 0x312DC, symSize: 0x188 }
  - { offsetInCU: 0x26305, offset: 0x86A22, size: 0x8, addend: 0x0, symName: __ZN3std4path10Components15len_before_body17hee71626ac7565c3aE, symObjAddr: 0x315B8, symBinAddr: 0x312DC, symSize: 0x188 }
  - { offsetInCU: 0x2631A, offset: 0x86A37, size: 0x8, addend: 0x0, symName: __ZN3std4path10Components15len_before_body17hee71626ac7565c3aE, symObjAddr: 0x315B8, symBinAddr: 0x312DC, symSize: 0x188 }
  - { offsetInCU: 0x264DF, offset: 0x86BFC, size: 0x8, addend: 0x0, symName: __ZN3std4path10Components7as_path17h37962ba7f4a507d5E, symObjAddr: 0x31740, symBinAddr: 0x31464, symSize: 0x318 }
  - { offsetInCU: 0x26787, offset: 0x86EA4, size: 0x8, addend: 0x0, symName: __ZN3std4path10Components25parse_next_component_back17hb33bb792dd004c24E, symObjAddr: 0x31A58, symBinAddr: 0x3177C, symSize: 0x124 }
  - { offsetInCU: 0x26963, offset: 0x87080, size: 0x8, addend: 0x0, symName: '__ZN80_$LT$std..path..Components$u20$as$u20$core..iter..traits..iterator..Iterator$GT$4next17hbe83ebcb51a539d7E', symObjAddr: 0x31D14, symBinAddr: 0x318A0, symSize: 0x34C }
  - { offsetInCU: 0x26CCA, offset: 0x873E7, size: 0x8, addend: 0x0, symName: '__ZN95_$LT$std..path..Components$u20$as$u20$core..iter..traits..double_ended..DoubleEndedIterator$GT$9next_back17ha0ac1aadc548a7a5E', symObjAddr: 0x32060, symBinAddr: 0x31BEC, symSize: 0x35C }
  - { offsetInCU: 0x26EB3, offset: 0x875D0, size: 0x8, addend: 0x0, symName: '__ZN61_$LT$std..path..Component$u20$as$u20$core..cmp..PartialEq$GT$2eq17h3a54026ba6afb9f1E', symObjAddr: 0x3B918, symBinAddr: 0x34670, symSize: 0x138 }
  - { offsetInCU: 0x27048, offset: 0x87765, size: 0x8, addend: 0x0, symName: '__ZN81_$LT$std..io..default_write_fmt..Adapter$LT$T$GT$$u20$as$u20$core..fmt..Write$GT$9write_str17h32f832a194197965E', symObjAddr: 0x2C634, symBinAddr: 0x3097C, symSize: 0x80 }
  - { offsetInCU: 0x27193, offset: 0x878B0, size: 0x8, addend: 0x0, symName: '__ZN81_$LT$std..io..default_write_fmt..Adapter$LT$T$GT$$u20$as$u20$core..fmt..Write$GT$9write_str17h568038b13dac282aE', symObjAddr: 0x2C7DC, symBinAddr: 0x309FC, symSize: 0xA0 }
  - { offsetInCU: 0x272CE, offset: 0x879EB, size: 0x8, addend: 0x0, symName: '__ZN81_$LT$std..io..default_write_fmt..Adapter$LT$T$GT$$u20$as$u20$core..fmt..Write$GT$9write_str17hcb16ad02548de2beE', symObjAddr: 0x2C87C, symBinAddr: 0x30A9C, symSize: 0xD8 }
  - { offsetInCU: 0x27420, offset: 0x87B3D, size: 0x8, addend: 0x0, symName: '__ZN81_$LT$std..io..default_write_fmt..Adapter$LT$T$GT$$u20$as$u20$core..fmt..Write$GT$9write_str17hee01247e03094bdcE', symObjAddr: 0x2C954, symBinAddr: 0x30B74, symSize: 0x50 }
  - { offsetInCU: 0x27462, offset: 0x87B7F, size: 0x8, addend: 0x0, symName: '__ZN3std2io5impls74_$LT$impl$u20$std..io..Write$u20$for$u20$alloc..vec..Vec$LT$u8$C$A$GT$$GT$5write17h5befd2d40cd7c2a0E', symObjAddr: 0x269E8, symBinAddr: 0x2FDE8, symSize: 0x84 }
  - { offsetInCU: 0x275A6, offset: 0x87CC3, size: 0x8, addend: 0x0, symName: '__ZN3std2io5impls74_$LT$impl$u20$std..io..Write$u20$for$u20$alloc..vec..Vec$LT$u8$C$A$GT$$GT$14write_vectored17h65b17ca1fbf453fcE', symObjAddr: 0x26A6C, symBinAddr: 0x2FE6C, symSize: 0x174 }
  - { offsetInCU: 0x277F1, offset: 0x87F0E, size: 0x8, addend: 0x0, symName: '__ZN3std2io5impls74_$LT$impl$u20$std..io..Write$u20$for$u20$alloc..vec..Vec$LT$u8$C$A$GT$$GT$17is_write_vectored17h878d4712471aecadE', symObjAddr: 0x26BE0, symBinAddr: 0x2FFE0, symSize: 0x14 }
  - { offsetInCU: 0x2780C, offset: 0x87F29, size: 0x8, addend: 0x0, symName: '__ZN3std2io5impls74_$LT$impl$u20$std..io..Write$u20$for$u20$alloc..vec..Vec$LT$u8$C$A$GT$$GT$9write_all17h1d2d577905b679d3E', symObjAddr: 0x26BF4, symBinAddr: 0x2FFF4, symSize: 0x80 }
  - { offsetInCU: 0x27956, offset: 0x88073, size: 0x8, addend: 0x0, symName: '__ZN3std2io5impls74_$LT$impl$u20$std..io..Write$u20$for$u20$alloc..vec..Vec$LT$u8$C$A$GT$$GT$18write_all_vectored17h19002316911df050E', symObjAddr: 0x26C74, symBinAddr: 0x30074, symSize: 0x168 }
  - { offsetInCU: 0x27981, offset: 0x8809E, size: 0x8, addend: 0x0, symName: '__ZN3std2io5impls74_$LT$impl$u20$std..io..Write$u20$for$u20$alloc..vec..Vec$LT$u8$C$A$GT$$GT$18write_all_vectored17h19002316911df050E', symObjAddr: 0x26C74, symBinAddr: 0x30074, symSize: 0x168 }
  - { offsetInCU: 0x27996, offset: 0x880B3, size: 0x8, addend: 0x0, symName: '__ZN3std2io5impls74_$LT$impl$u20$std..io..Write$u20$for$u20$alloc..vec..Vec$LT$u8$C$A$GT$$GT$18write_all_vectored17h19002316911df050E', symObjAddr: 0x26C74, symBinAddr: 0x30074, symSize: 0x168 }
  - { offsetInCU: 0x279AB, offset: 0x880C8, size: 0x8, addend: 0x0, symName: '__ZN3std2io5impls74_$LT$impl$u20$std..io..Write$u20$for$u20$alloc..vec..Vec$LT$u8$C$A$GT$$GT$18write_all_vectored17h19002316911df050E', symObjAddr: 0x26C74, symBinAddr: 0x30074, symSize: 0x168 }
  - { offsetInCU: 0x279BF, offset: 0x880DC, size: 0x8, addend: 0x0, symName: '__ZN3std2io5impls74_$LT$impl$u20$std..io..Write$u20$for$u20$alloc..vec..Vec$LT$u8$C$A$GT$$GT$18write_all_vectored17h19002316911df050E', symObjAddr: 0x26C74, symBinAddr: 0x30074, symSize: 0x168 }
  - { offsetInCU: 0x27BD6, offset: 0x882F3, size: 0x8, addend: 0x0, symName: '__ZN3std2io5impls74_$LT$impl$u20$std..io..Write$u20$for$u20$alloc..vec..Vec$LT$u8$C$A$GT$$GT$5flush17h5fa10f4da9783ea9E', symObjAddr: 0x26DDC, symBinAddr: 0x301DC, symSize: 0x14 }
  - { offsetInCU: 0x27D1A, offset: 0x88437, size: 0x8, addend: 0x0, symName: '__ZN58_$LT$std..io..error..Error$u20$as$u20$core..fmt..Debug$GT$3fmt17hf7bc0a9730c3f84bE', symObjAddr: 0x261B4, symBinAddr: 0x2F940, symSize: 0x10 }
  - { offsetInCU: 0x27D4C, offset: 0x88469, size: 0x8, addend: 0x0, symName: '__ZN3std2io5error83_$LT$impl$u20$core..fmt..Debug$u20$for$u20$std..io..error..repr_bitpacked..Repr$GT$3fmt17h3709387db46ad240E', symObjAddr: 0x26460, symBinAddr: 0x2F950, symSize: 0x294 }
  - { offsetInCU: 0x27F97, offset: 0x886B4, size: 0x8, addend: 0x0, symName: '__ZN60_$LT$std..io..error..Error$u20$as$u20$core..fmt..Display$GT$3fmt17h2e1d7d37ecfc4fe6E', symObjAddr: 0x266F4, symBinAddr: 0x2FBE4, symSize: 0x204 }
  - { offsetInCU: 0x281F6, offset: 0x88913, size: 0x8, addend: 0x0, symName: '__ZN62_$LT$std..io..error..ErrorKind$u20$as$u20$core..fmt..Debug$GT$3fmt17h5b63cda196727b07E', symObjAddr: 0x3B8E4, symBinAddr: 0x3463C, symSize: 0x34 }
  - { offsetInCU: 0x28230, offset: 0x8894D, size: 0x8, addend: 0x0, symName: __ZN3std2io5Write9write_all17hae91cf967eed978fE, symObjAddr: 0x2CA24, symBinAddr: 0x30BC4, symSize: 0xB8 }
  - { offsetInCU: 0x2835F, offset: 0x88A7C, size: 0x8, addend: 0x0, symName: __ZN3std2io5Write18write_all_vectored17h0aec801afb95e4a6E, symObjAddr: 0x2CADC, symBinAddr: 0x30C7C, symSize: 0x1CC }
  - { offsetInCU: 0x28637, offset: 0x88D54, size: 0x8, addend: 0x0, symName: __ZN3std2io5Write9write_fmt17h1d5ecddf7e34f0beE, symObjAddr: 0x2CCA8, symBinAddr: 0x30E48, symSize: 0x128 }
  - { offsetInCU: 0x2887F, offset: 0x88F9C, size: 0x8, addend: 0x0, symName: __ZN3std2io5Write9write_fmt17hb0488af32274472bE, symObjAddr: 0x2CDD0, symBinAddr: 0x30F70, symSize: 0x128 }
  - { offsetInCU: 0x28AC7, offset: 0x891E4, size: 0x8, addend: 0x0, symName: __ZN3std2io5Write9write_fmt17hcee3b5dc9ab531beE, symObjAddr: 0x2CEF8, symBinAddr: 0x31098, symSize: 0x128 }
  - { offsetInCU: 0x28D39, offset: 0x89456, size: 0x8, addend: 0x0, symName: __ZN3std2io5stdio6Stderr4lock17h2c9fe88e84b8978dE, symObjAddr: 0x2A6CC, symBinAddr: 0x301F0, symSize: 0x0 }
  - { offsetInCU: 0x28FEF, offset: 0x8970C, size: 0x8, addend: 0x0, symName: '__ZN61_$LT$$RF$std..io..stdio..Stderr$u20$as$u20$std..io..Write$GT$9write_fmt17h312ed9819e2f37d2E', symObjAddr: 0x2AE48, symBinAddr: 0x302E0, symSize: 0x190 }
  - { offsetInCU: 0x293E2, offset: 0x89AFF, size: 0x8, addend: 0x0, symName: '__ZN61_$LT$std..io..stdio..StderrLock$u20$as$u20$std..io..Write$GT$9write_all17hfe3f62dad7a31402E', symObjAddr: 0x2B1EC, symBinAddr: 0x30470, symSize: 0x114 }
  - { offsetInCU: 0x2973F, offset: 0x89E5C, size: 0x8, addend: 0x0, symName: __ZN3std2io5stdio22try_set_output_capture17hd68f6bec75e45d10E, symObjAddr: 0x2B4C4, symBinAddr: 0x30584, symSize: 0x10C }
  - { offsetInCU: 0x299DD, offset: 0x8A0FA, size: 0x8, addend: 0x0, symName: __ZN3std2io5stdio31print_to_buffer_if_capture_used17h44dd14c8430f4786E, symObjAddr: 0x2B5D0, symBinAddr: 0x30690, symSize: 0x224 }
  - { offsetInCU: 0x2A0BF, offset: 0x8A7DC, size: 0x8, addend: 0x0, symName: __ZN3std2io5stdio7_eprint17h0c9605637bb3f695E, symObjAddr: 0x2B9AC, symBinAddr: 0x308B4, symSize: 0xC8 }
  - { offsetInCU: 0x2A3F8, offset: 0x8AB15, size: 0x8, addend: 0x0, symName: __ZN3std12backtrace_rs9symbolize5gimli7Context3new17hcef0d10321ee9ad8E, symObjAddr: 0x4782C, symBinAddr: 0x35DA8, symSize: 0x24A0 }
  - { offsetInCU: 0x2E2AD, offset: 0x8E9CA, size: 0x8, addend: 0x0, symName: __ZN3std12backtrace_rs9symbolize5gimli7Context11find_frames17hc30ab743cb2e1407E, symObjAddr: 0x49CCC, symBinAddr: 0x38248, symSize: 0x388 }
  - { offsetInCU: 0x2E6DF, offset: 0x8EDFC, size: 0x8, addend: 0x0, symName: __ZN3std12backtrace_rs9symbolize5gimli5macho6Object5parse17hfc2f8fb3df961fb8E, symObjAddr: 0x4CABC, symBinAddr: 0x3B008, symSize: 0xB6C }
  - { offsetInCU: 0x30340, offset: 0x90A5D, size: 0x8, addend: 0x0, symName: __ZN3std12backtrace_rs9symbolize5gimli5macho6Object7section17h4bf5721a4fce0969E, symObjAddr: 0x4D628, symBinAddr: 0x3BB74, symSize: 0x148 }
  - { offsetInCU: 0x3079A, offset: 0x90EB7, size: 0x8, addend: 0x0, symName: __ZN3std12backtrace_rs9symbolize5gimli5macho11find_header17hed249ee939f87b4bE, symObjAddr: 0x4C8DC, symBinAddr: 0x3AE28, symSize: 0x1E0 }
  - { offsetInCU: 0x30F96, offset: 0x916B3, size: 0x8, addend: 0x0, symName: __ZN3std12backtrace_rs9symbolize5gimli4mmap17hf7fe21ef021670dcE, symObjAddr: 0x4A054, symBinAddr: 0x385D0, symSize: 0x174 }
  - { offsetInCU: 0x315F2, offset: 0x91D0F, size: 0x8, addend: 0x0, symName: __ZN3std12backtrace_rs9symbolize5gimli7resolve17h8fa3fc736d162a6cE, symObjAddr: 0x4A1C8, symBinAddr: 0x38744, symSize: 0x26E4 }
  - { offsetInCU: 0x36F62, offset: 0x9767F, size: 0x8, addend: 0x0, symName: __ZN3std12backtrace_rs9symbolize6Symbol4name17h66276919332713f7E, symObjAddr: 0x3ACD0, symBinAddr: 0x33F20, symSize: 0xE4 }
  - { offsetInCU: 0x3708E, offset: 0x977AB, size: 0x8, addend: 0x0, symName: '__ZN79_$LT$std..backtrace_rs..symbolize..SymbolName$u20$as$u20$core..fmt..Display$GT$3fmt17hf39c22fada389463E', symObjAddr: 0x3AEF8, symBinAddr: 0x34004, symSize: 0x100 }
  - { offsetInCU: 0x371C8, offset: 0x978E5, size: 0x8, addend: 0x0, symName: __ZN3std12backtrace_rs9backtrace9libunwind5trace8trace_fn17h58f906a2969d52dfE, symObjAddr: 0x477E4, symBinAddr: 0x35D60, symSize: 0x48 }
  - { offsetInCU: 0x3728E, offset: 0x979AB, size: 0x8, addend: 0x0, symName: __ZN3std12backtrace_rs5print17BacktraceFrameFmt21print_raw_with_column17hc835cf600a7d2942E, symObjAddr: 0x3B0F8, symBinAddr: 0x34104, symSize: 0x384 }
  - { offsetInCU: 0x373D3, offset: 0x97AF0, size: 0x8, addend: 0x0, symName: __ZN3std12backtrace_rs5print17BacktraceFrameFmt14print_fileline17h88d02170f658700cE, symObjAddr: 0x3B47C, symBinAddr: 0x34488, symSize: 0x1B4 }
  - { offsetInCU: 0x3754A, offset: 0x97C67, size: 0x8, addend: 0x0, symName: __ZN3std6thread7current7current17hcb3d281c45397bb1E, symObjAddr: 0x1EF94, symBinAddr: 0x2EE30, symSize: 0x48 }
  - { offsetInCU: 0x37647, offset: 0x97D64, size: 0x8, addend: 0x0, symName: __ZN3std6thread7current12init_current17h3684de0a8000ead6E, symObjAddr: 0x1EFDC, symBinAddr: 0x4AAD8, symSize: 0x17C }
  - { offsetInCU: 0x379A0, offset: 0x980BD, size: 0x8, addend: 0x0, symName: __ZN3std6thread6Thread3new17he031932d545164f8E, symObjAddr: 0x1FF44, symBinAddr: 0x2F050, symSize: 0x160 }
  - { offsetInCU: 0x37DD9, offset: 0x984F6, size: 0x8, addend: 0x0, symName: '__ZN118_$LT$std..thread..thread_name_string..ThreadNameString$u20$as$u20$core..convert..From$LT$alloc..string..String$GT$$GT$4from17h0806c81a16382eb7E', symObjAddr: 0x1FE34, symBinAddr: 0x2EF40, symSize: 0x110 }
  - { offsetInCU: 0x37FBF, offset: 0x986DC, size: 0x8, addend: 0x0, symName: '__ZN65_$LT$std..thread..PanicGuard$u20$as$u20$core..ops..drop..Drop$GT$4drop17h17106a48a2feda5dE', symObjAddr: 0x1FB54, symBinAddr: 0x4AC54, symSize: 0x44 }
  - { offsetInCU: 0x37FF1, offset: 0x9870E, size: 0x8, addend: 0x0, symName: __ZN3std6thread4park17h74845804ae278988E, symObjAddr: 0x1FB98, symBinAddr: 0x2EE78, symSize: 0xC8 }
  - { offsetInCU: 0x3823F, offset: 0x9895C, size: 0x8, addend: 0x0, symName: __ZN3std6thread8ThreadId3new9exhausted17h96a0b5c3e96269a9E, symObjAddr: 0x1FDFC, symBinAddr: 0x4AC98, symSize: 0x38 }
  - { offsetInCU: 0x382EC, offset: 0x98A09, size: 0x8, addend: 0x0, symName: __ZN3std5panic13resume_unwind17hc3788aaf1f473816E, symObjAddr: 0x3131C, symBinAddr: 0x4ACD0, symSize: 0xC }
  - { offsetInCU: 0x3831A, offset: 0x98A37, size: 0x8, addend: 0x0, symName: __ZN3std5panic19get_backtrace_style17h1eeb8858841581bcE, symObjAddr: 0x31364, symBinAddr: 0x311C0, symSize: 0x11C }
  - { offsetInCU: 0x38339, offset: 0x98A56, size: 0x8, addend: 0x0, symName: __ZN3std5panic19get_backtrace_style17h1eeb8858841581bcE, symObjAddr: 0x31364, symBinAddr: 0x311C0, symSize: 0x11C }
  - { offsetInCU: 0x3834E, offset: 0x98A6B, size: 0x8, addend: 0x0, symName: __ZN3std5panic19get_backtrace_style17h1eeb8858841581bcE, symObjAddr: 0x31364, symBinAddr: 0x311C0, symSize: 0x11C }
  - { offsetInCU: 0x38787, offset: 0x98EA4, size: 0x8, addend: 0x0, symName: __ZN3std3env11current_dir17h64389188c2d99bc3E, symObjAddr: 0x212A0, symBinAddr: 0x2F1B0, symSize: 0x1A4 }
  - { offsetInCU: 0x38B68, offset: 0x99285, size: 0x8, addend: 0x0, symName: __ZN3std3env7_var_os17hf84585998aa11012E, symObjAddr: 0x21B60, symBinAddr: 0x2F354, symSize: 0x164 }
  - { offsetInCU: 0x38E28, offset: 0x99545, size: 0x8, addend: 0x0, symName: __ZN3std2fs11OpenOptions5_open17h7fdc2c8c79501e87E, symObjAddr: 0x24224, symBinAddr: 0x2F564, symSize: 0x250 }
  - { offsetInCU: 0x38FD1, offset: 0x996EE, size: 0x8, addend: 0x0, symName: '__ZN75_$LT$std..fs..ReadDir$u20$as$u20$core..iter..traits..iterator..Iterator$GT$4next17heba1cd67bdade39bE', symObjAddr: 0x2487C, symBinAddr: 0x2F7B4, symSize: 0x18C }
  - { offsetInCU: 0x392B7, offset: 0x999D4, size: 0x8, addend: 0x0, symName: __ZN3std5alloc24default_alloc_error_hook17h9eac73639c8960d3E, symObjAddr: 0x39334, symBinAddr: 0x32C08, symSize: 0x140 }
  - { offsetInCU: 0x394FA, offset: 0x99C17, size: 0x8, addend: 0x0, symName: __RNvCscSpY9Juk0HT_7___rustc11___rdl_alloc, symObjAddr: 0x39474, symBinAddr: 0x32D48, symSize: 0x6C }
  - { offsetInCU: 0x3957A, offset: 0x99C97, size: 0x8, addend: 0x0, symName: __RNvCscSpY9Juk0HT_7___rustc13___rdl_dealloc, symObjAddr: 0x394E0, symBinAddr: 0x32DB4, symSize: 0x10 }
  - { offsetInCU: 0x395AE, offset: 0x99CCB, size: 0x8, addend: 0x0, symName: __RNvCscSpY9Juk0HT_7___rustc13___rdl_realloc, symObjAddr: 0x394F0, symBinAddr: 0x32DC4, symSize: 0xB0 }
  - { offsetInCU: 0x39684, offset: 0x99DA1, size: 0x8, addend: 0x0, symName: __RNvCscSpY9Juk0HT_7___rustc18___rdl_alloc_zeroed, symObjAddr: 0x395A0, symBinAddr: 0x32E74, symSize: 0x90 }
  - { offsetInCU: 0x39726, offset: 0x99E43, size: 0x8, addend: 0x0, symName: __ZN3std5alloc8rust_oom17h5eabf6e6006157f2E, symObjAddr: 0x476F0, symBinAddr: 0x4B57C, symSize: 0x2C }
  - { offsetInCU: 0x39775, offset: 0x99E92, size: 0x8, addend: 0x0, symName: __RNvCscSpY9Juk0HT_7___rustc8___rg_oom, symObjAddr: 0x4771C, symBinAddr: 0x4B5A8, symSize: 0x18 }
  - { offsetInCU: 0x3988B, offset: 0x99FA8, size: 0x8, addend: 0x0, symName: '__ZN9addr2line8function17Function$LT$R$GT$14parse_children17he01053a6ad9a1f25E', symObjAddr: 0x1D494, symBinAddr: 0x2DDEC, symSize: 0xE84 }
  - { offsetInCU: 0x3B0D7, offset: 0x9B7F4, size: 0x8, addend: 0x0, symName: __ZN9addr2line8function10name_entry17h38d8efbccdf337faE, symObjAddr: 0x1D128, symBinAddr: 0x2DA80, symSize: 0x36C }
  - { offsetInCU: 0x3B594, offset: 0x9BCB1, size: 0x8, addend: 0x0, symName: __ZN9addr2line8function9name_attr17h46eae00989ea3d92E, symObjAddr: 0x1E318, symBinAddr: 0x2EC70, symSize: 0x1C0 }
  - { offsetInCU: 0x3B7AE, offset: 0x9BECB, size: 0x8, addend: 0x0, symName: '__ZN9addr2line4unit16ResUnit$LT$R$GT$25find_function_or_location17hc38a4c835113e2d4E', symObjAddr: 0x1B1B4, symBinAddr: 0x2BB0C, symSize: 0x3DC }
  - { offsetInCU: 0x3BCE1, offset: 0x9C3FE, size: 0x8, addend: 0x0, symName: '__ZN9addr2line4unit16ResUnit$LT$R$GT$25find_function_or_location28_$u7b$$u7b$closure$u7d$$u7d$17hb49850490ac8c1eaE', symObjAddr: 0x1B590, symBinAddr: 0x2BEE8, symSize: 0x14D8 }
  - { offsetInCU: 0x3E5FF, offset: 0x9ED1C, size: 0x8, addend: 0x0, symName: '__ZN9addr2line16Context$LT$R$GT$9find_unit17h86431bbaa4e638e1E', symObjAddr: 0x19048, symBinAddr: 0x299A0, symSize: 0x168 }
  - { offsetInCU: 0x3E78F, offset: 0x9EEAC, size: 0x8, addend: 0x0, symName: __ZN9addr2line4line11render_file17h1ea26ad94a0ec787E, symObjAddr: 0x191B0, symBinAddr: 0x29B08, symSize: 0x4B8 }
  - { offsetInCU: 0x3F085, offset: 0x9F7A2, size: 0x8, addend: 0x0, symName: __ZN9addr2line4line9LazyLines6borrow17hcc1a451a020c0f99E, symObjAddr: 0x19668, symBinAddr: 0x29FC0, symSize: 0x1B4C }
  - { offsetInCU: 0x423F3, offset: 0xA2B10, size: 0x8, addend: 0x0, symName: '__ZN9addr2line6lookup30LoopingLookup$LT$T$C$L$C$F$GT$10new_lookup17h22a72e28707e607cE', symObjAddr: 0x1CCEC, symBinAddr: 0x2D644, symSize: 0x43C }
  - { offsetInCU: 0x42969, offset: 0xA3086, size: 0x8, addend: 0x0, symName: '__ZN9addr2line5frame18FrameIter$LT$R$GT$4next17h43b141400a9fa6caE', symObjAddr: 0x1CA68, symBinAddr: 0x2D3C0, symSize: 0x284 }
  - { offsetInCU: 0x42DEE, offset: 0xA350B, size: 0x8, addend: 0x0, symName: '__ZN5gimli4read4unit32AttributeValue$LT$R$C$Offset$GT$11udata_value17h39260ccf56b6c62eE', symObjAddr: 0x145D4, symBinAddr: 0x254E4, symSize: 0x90 }
  - { offsetInCU: 0x42E43, offset: 0xA3560, size: 0x8, addend: 0x0, symName: __ZN5gimli4read4unit15parse_attribute17h42e82576ea87c737E, symObjAddr: 0x128C8, symBinAddr: 0x237D8, symSize: 0xF74 }
  - { offsetInCU: 0x45B83, offset: 0xA62A0, size: 0x8, addend: 0x0, symName: __ZN5gimli4read4unit15skip_attributes17he5a6ba13e1b39484E, symObjAddr: 0x1383C, symBinAddr: 0x2474C, symSize: 0x548 }
  - { offsetInCU: 0x465A2, offset: 0xA6CBF, size: 0x8, addend: 0x0, symName: '__ZN5gimli4read4unit18Attribute$LT$R$GT$5value17h55ab5a6a6343d877E', symObjAddr: 0x13D84, symBinAddr: 0x24C94, symSize: 0x598 }
  - { offsetInCU: 0x46B1B, offset: 0xA7238, size: 0x8, addend: 0x0, symName: '__ZN5gimli4read4unit22EntriesCursor$LT$R$GT$10next_entry17h64a36fc34f32f8f9E', symObjAddr: 0x1431C, symBinAddr: 0x2522C, symSize: 0x2B8 }
  - { offsetInCU: 0x470E8, offset: 0xA7805, size: 0x8, addend: 0x0, symName: '__ZN5gimli4read4unit33DebugInfoUnitHeadersIter$LT$R$GT$4next17he8912ef86bf49c46E', symObjAddr: 0x14664, symBinAddr: 0x25574, symSize: 0x524 }
  - { offsetInCU: 0x4828F, offset: 0xA89AC, size: 0x8, addend: 0x0, symName: '__ZN90_$LT$gimli..read..unit..AttributeValue$LT$R$C$Offset$GT$$u20$as$u20$core..clone..Clone$GT$5clone17h4f58c35d14eeca4dE', symObjAddr: 0x18F28, symBinAddr: 0x29938, symSize: 0x68 }
  - { offsetInCU: 0x484B9, offset: 0xA8BD6, size: 0x8, addend: 0x0, symName: __ZN5gimli4read6reader6Reader11read_offset17ha36e30db0446973eE, symObjAddr: 0x170D4, symBinAddr: 0x27FE4, symSize: 0xBC }
  - { offsetInCU: 0x486FB, offset: 0xA8E18, size: 0x8, addend: 0x0, symName: __ZN5gimli4read6reader6Reader12read_sleb12817h8dbbde58e92cb827E, symObjAddr: 0x17190, symBinAddr: 0x280A0, symSize: 0x21C }
  - { offsetInCU: 0x487E7, offset: 0xA8F04, size: 0x8, addend: 0x0, symName: __ZN5gimli4read6reader6Reader12read_uleb12817h027fbfd00e66742eE, symObjAddr: 0x173AC, symBinAddr: 0x282BC, symSize: 0xB0 }
  - { offsetInCU: 0x4889B, offset: 0xA8FB8, size: 0x8, addend: 0x0, symName: __ZN5gimli4read6reader6Reader17read_sized_offset17ha677750b3e86b6faE, symObjAddr: 0x1745C, symBinAddr: 0x2836C, symSize: 0xEC }
  - { offsetInCU: 0x48CA8, offset: 0xA93C5, size: 0x8, addend: 0x0, symName: __ZN5gimli4read4line13parse_file_v517he2d9d84d2aecea69E, symObjAddr: 0x11728, symBinAddr: 0x22638, symSize: 0x2B4 }
  - { offsetInCU: 0x48E1E, offset: 0xA953B, size: 0x8, addend: 0x0, symName: __ZN5gimli4read4line15FileEntryFormat5parse17hfdff92513d60017cE, symObjAddr: 0x119DC, symBinAddr: 0x228EC, symSize: 0x378 }
  - { offsetInCU: 0x49642, offset: 0xA9D5F, size: 0x8, addend: 0x0, symName: __ZN5gimli4read4line15parse_attribute17hf68725cff43578d6E, symObjAddr: 0x11D54, symBinAddr: 0x22C64, symSize: 0x874 }
  - { offsetInCU: 0x4AEDC, offset: 0xAB5F9, size: 0x8, addend: 0x0, symName: __ZN5gimli4read4line18parse_directory_v517ha4f3f511bf17998cE, symObjAddr: 0x125C8, symBinAddr: 0x234D8, symSize: 0xE8 }
  - { offsetInCU: 0x4AF6B, offset: 0xAB688, size: 0x8, addend: 0x0, symName: '__ZN5gimli4read4line27FileEntry$LT$R$C$Offset$GT$5parse17h08014b665b1d4e87E', symObjAddr: 0x126B0, symBinAddr: 0x235C0, symSize: 0x218 }
  - { offsetInCU: 0x4B648, offset: 0xABD65, size: 0x8, addend: 0x0, symName: '__ZN5gimli4read5dwarf14Dwarf$LT$R$GT$11attr_string17hd3af10fd318c7b8cE', symObjAddr: 0x16814, symBinAddr: 0x27724, symSize: 0x1F4 }
  - { offsetInCU: 0x4BEB9, offset: 0xAC5D6, size: 0x8, addend: 0x0, symName: '__ZN5gimli4read5dwarf13Unit$LT$R$GT$3new17hb72509c831483e4fE', symObjAddr: 0x14B88, symBinAddr: 0x25A98, symSize: 0x1C8C }
  - { offsetInCU: 0x4F7D4, offset: 0xAFEF1, size: 0x8, addend: 0x0, symName: '__ZN5gimli4read5index18UnitIndex$LT$R$GT$5parse17h418438fdd7ab3d32E', symObjAddr: 0x16A08, symBinAddr: 0x27918, symSize: 0x6CC }
  - { offsetInCU: 0x4FD7A, offset: 0xB0497, size: 0x8, addend: 0x0, symName: '__ZN5gimli4read7aranges30ArangeHeader$LT$R$C$Offset$GT$5parse17h70fb9a6d95d436e6E', symObjAddr: 0x17548, symBinAddr: 0x28458, symSize: 0x2B4 }
  - { offsetInCU: 0x5067D, offset: 0xB0D9A, size: 0x8, addend: 0x0, symName: '__ZN5gimli4read8rnglists20RngListIter$LT$R$GT$4next17h78f45b1bedac817eE', symObjAddr: 0x177FC, symBinAddr: 0x2870C, symSize: 0xC74 }
  - { offsetInCU: 0x535BA, offset: 0xB3CD7, size: 0x8, addend: 0x0, symName: __ZN6object4read7archive13ArchiveMember5parse17h67b4ba1674cc9d3eE, symObjAddr: 0x18934, symBinAddr: 0x293E8, symSize: 0x304 }
  - { offsetInCU: 0x535D8, offset: 0xB3CF5, size: 0x8, addend: 0x0, symName: __ZN6object4read7archive13ArchiveMember5parse17h67b4ba1674cc9d3eE, symObjAddr: 0x18934, symBinAddr: 0x293E8, symSize: 0x304 }
  - { offsetInCU: 0x535ED, offset: 0xB3D0A, size: 0x8, addend: 0x0, symName: __ZN6object4read7archive13ArchiveMember5parse17h67b4ba1674cc9d3eE, symObjAddr: 0x18934, symBinAddr: 0x293E8, symSize: 0x304 }
  - { offsetInCU: 0x53DCC, offset: 0xB44E9, size: 0x8, addend: 0x0, symName: __ZN6object4read7archive23parse_bsd_extended_name17h082002b8512af551E, symObjAddr: 0x18C38, symBinAddr: 0x296EC, symSize: 0x24C }
  - { offsetInCU: 0x54B9E, offset: 0xB52BB, size: 0x8, addend: 0x0, symName: _OUTLINED_FUNCTION_0, symObjAddr: 0x4D770, symBinAddr: 0x3BCBC, symSize: 0x24 }
  - { offsetInCU: 0x54BB6, offset: 0xB52D3, size: 0x8, addend: 0x0, symName: _OUTLINED_FUNCTION_1, symObjAddr: 0x4D794, symBinAddr: 0x3BCE0, symSize: 0x8 }
  - { offsetInCU: 0x54BCE, offset: 0xB52EB, size: 0x8, addend: 0x0, symName: _OUTLINED_FUNCTION_2, symObjAddr: 0x4D79C, symBinAddr: 0x3BCE8, symSize: 0x10 }
  - { offsetInCU: 0x54BE6, offset: 0xB5303, size: 0x8, addend: 0x0, symName: _OUTLINED_FUNCTION_4, symObjAddr: 0x4D7B4, symBinAddr: 0x3BCF8, symSize: 0xC }
  - { offsetInCU: 0x54BFE, offset: 0xB531B, size: 0x8, addend: 0x0, symName: _OUTLINED_FUNCTION_5, symObjAddr: 0x4D7C0, symBinAddr: 0x3BD04, symSize: 0x8 }
  - { offsetInCU: 0x54C16, offset: 0xB5333, size: 0x8, addend: 0x0, symName: _OUTLINED_FUNCTION_6, symObjAddr: 0x4D7C8, symBinAddr: 0x3BD0C, symSize: 0xC }
  - { offsetInCU: 0x1E, offset: 0xB5369, size: 0x8, addend: 0x0, symName: '__ZN4core3ptr49drop_in_place$LT$panic_unwind..imp..Exception$GT$17h7e76df245d3fc9efE', symObjAddr: 0x0, symBinAddr: 0x3BD18, symSize: 0x78 }
  - { offsetInCU: 0x42, offset: 0xB538D, size: 0x8, addend: 0x0, symName: '__ZN4core3ptr49drop_in_place$LT$panic_unwind..imp..Exception$GT$17h7e76df245d3fc9efE', symObjAddr: 0x0, symBinAddr: 0x3BD18, symSize: 0x78 }
  - { offsetInCU: 0x147, offset: 0xB5492, size: 0x8, addend: 0x0, symName: '__ZN4core3ptr74drop_in_place$LT$alloc..boxed..Box$LT$panic_unwind..imp..Exception$GT$$GT$17h724e7cd1527fb26bE', symObjAddr: 0x78, symBinAddr: 0x3BD90, symSize: 0x8C }
  - { offsetInCU: 0x40B, offset: 0xB5756, size: 0x8, addend: 0x0, symName: __ZN12panic_unwind3imp5panic17exception_cleanup17h295bb1a173efc034E, symObjAddr: 0x214, symBinAddr: 0x3BF2C, symSize: 0x18 }
  - { offsetInCU: 0x426, offset: 0xB5771, size: 0x8, addend: 0x0, symName: __RNvCscSpY9Juk0HT_7___rustc20___rust_panic_cleanup, symObjAddr: 0x104, symBinAddr: 0x3BE1C, symSize: 0x68 }
  - { offsetInCU: 0x4CC, offset: 0xB5817, size: 0x8, addend: 0x0, symName: __RNvCscSpY9Juk0HT_7___rustc18___rust_start_panic, symObjAddr: 0x16C, symBinAddr: 0x3BE84, symSize: 0xA8 }
  - { offsetInCU: 0x3A, offset: 0xB58F1, size: 0x8, addend: 0x0, symName: '__ZN42_$LT$$RF$T$u20$as$u20$core..fmt..Debug$GT$3fmt17h5358ee43b4828dacE', symObjAddr: 0x1C, symBinAddr: 0x44740, symSize: 0x30 }
  - { offsetInCU: 0x7F, offset: 0xB5936, size: 0x8, addend: 0x0, symName: '__ZN42_$LT$$RF$T$u20$as$u20$core..fmt..Debug$GT$3fmt17h6f50336ba13e4262E', symObjAddr: 0x4C, symBinAddr: 0x44770, symSize: 0x68 }
  - { offsetInCU: 0xF0, offset: 0xB59A7, size: 0x8, addend: 0x0, symName: __ZN4core3fmt5Write9write_fmt17h6a4c3448a6c91058E, symObjAddr: 0xB4, symBinAddr: 0x447D8, symSize: 0x1C }
  - { offsetInCU: 0x130, offset: 0xB59E7, size: 0x8, addend: 0x0, symName: '__ZN53_$LT$core..fmt..Error$u20$as$u20$core..fmt..Debug$GT$3fmt17h746dff6f1908459eE', symObjAddr: 0x49C, symBinAddr: 0x4481C, symSize: 0x20 }
  - { offsetInCU: 0x1C3, offset: 0xB5A7A, size: 0x8, addend: 0x0, symName: '__ZN4core3ptr42drop_in_place$LT$alloc..string..String$GT$17h11d68f4efcaef4b0E', symObjAddr: 0xF8, symBinAddr: 0x447F4, symSize: 0x28 }
  - { offsetInCU: 0x4C8, offset: 0xB5D7F, size: 0x8, addend: 0x0, symName: __ZN4core9panicking13assert_failed17h5c2fc57eb32ebd97E, symObjAddr: 0x46C, symBinAddr: 0x4B674, symSize: 0x30 }
  - { offsetInCU: 0x4F3, offset: 0xB5DAA, size: 0x8, addend: 0x0, symName: '__ZN69_$LT$core..alloc..layout..LayoutError$u20$as$u20$core..fmt..Debug$GT$3fmt17hfbf259c31926453fE', symObjAddr: 0x4BC, symBinAddr: 0x4483C, symSize: 0x20 }
  - { offsetInCU: 0x749, offset: 0xB6000, size: 0x8, addend: 0x0, symName: '__ZN5alloc7raw_vec19RawVec$LT$T$C$A$GT$8grow_one17h164244085582e5d0E', symObjAddr: 0x510, symBinAddr: 0x4485C, symSize: 0xA0 }
  - { offsetInCU: 0x850, offset: 0xB6107, size: 0x8, addend: 0x0, symName: __ZN5alloc7raw_vec17capacity_overflow17h3941a18258a4ea7cE, symObjAddr: 0x4DC, symBinAddr: 0x4B6A4, symSize: 0x34 }
  - { offsetInCU: 0x896, offset: 0xB614D, size: 0x8, addend: 0x0, symName: '__ZN5alloc7raw_vec20RawVecInner$LT$A$GT$7reserve21do_reserve_and_handle17hd762c79ece24efc7E', symObjAddr: 0x5B0, symBinAddr: 0x4B6D8, symSize: 0xB0 }
  - { offsetInCU: 0x996, offset: 0xB624D, size: 0x8, addend: 0x0, symName: __ZN5alloc7raw_vec11finish_grow17hb225fb0e5269479dE, symObjAddr: 0x660, symBinAddr: 0x4B788, symSize: 0x88 }
  - { offsetInCU: 0xA0B, offset: 0xB62C2, size: 0x8, addend: 0x0, symName: __ZN5alloc7raw_vec12handle_error17h08b36af4b863e188E, symObjAddr: 0x6E8, symBinAddr: 0x4B810, symSize: 0x18 }
  - { offsetInCU: 0xAFA, offset: 0xB63B1, size: 0x8, addend: 0x0, symName: __ZN5alloc5alloc18handle_alloc_error17h7fdce18735b16205E, symObjAddr: 0x700, symBinAddr: 0x4B828, symSize: 0x18 }
  - { offsetInCU: 0xB82, offset: 0xB6439, size: 0x8, addend: 0x0, symName: __ZN5alloc6string6String15from_utf8_lossy17h1f03de4dacb5bb19E, symObjAddr: 0x3228, symBinAddr: 0x44D38, symSize: 0x244 }
  - { offsetInCU: 0x10DA, offset: 0xB6991, size: 0x8, addend: 0x0, symName: '__ZN98_$LT$alloc..string..String$u20$as$u20$core..convert..From$LT$alloc..borrow..Cow$LT$str$GT$$GT$$GT$4from17hc10e639658ac9a9cE', symObjAddr: 0x4D50, symBinAddr: 0x45014, symSize: 0xBC }
  - { offsetInCU: 0x1244, offset: 0xB6AFB, size: 0x8, addend: 0x0, symName: '__ZN60_$LT$alloc..string..String$u20$as$u20$core..clone..Clone$GT$5clone17hee6501a3e6db176fE', symObjAddr: 0x4B84, symBinAddr: 0x44F7C, symSize: 0x98 }
  - { offsetInCU: 0x1379, offset: 0xB6C30, size: 0x8, addend: 0x0, symName: '__ZN58_$LT$alloc..string..String$u20$as$u20$core..fmt..Write$GT$9write_str17h170208372085df66E', symObjAddr: 0x4EB8, symBinAddr: 0x450D0, symSize: 0x78 }
  - { offsetInCU: 0x14CB, offset: 0xB6D82, size: 0x8, addend: 0x0, symName: '__ZN58_$LT$alloc..string..String$u20$as$u20$core..fmt..Write$GT$10write_char17hca608ea4a9635092E', symObjAddr: 0x4F30, symBinAddr: 0x45148, symSize: 0x148 }
  - { offsetInCU: 0x18AE, offset: 0xB7165, size: 0x8, addend: 0x0, symName: '__ZN93_$LT$alloc..collections..btree..mem..replace..PanicGuard$u20$as$u20$core..ops..drop..Drop$GT$4drop17he48e60cd64c1aa9cE', symObjAddr: 0x1100, symBinAddr: 0x4B840, symSize: 0xC }
  - { offsetInCU: 0x1983, offset: 0xB723A, size: 0x8, addend: 0x0, symName: '__ZN72_$LT$$RF$str$u20$as$u20$alloc..ffi..c_str..CString..new..SpecNewImpl$GT$13spec_new_impl17h92874a80b8b86b00E', symObjAddr: 0x1198, symBinAddr: 0x448FC, symSize: 0x0 }
  - { offsetInCU: 0x1BC4, offset: 0xB747B, size: 0x8, addend: 0x0, symName: __ZN5alloc3ffi5c_str7CString19_from_vec_unchecked17ha7dc3db29b1af243E, symObjAddr: 0x1400, symBinAddr: 0x44A18, symSize: 0x160 }
  - { offsetInCU: 0x1EF3, offset: 0xB77AA, size: 0x8, addend: 0x0, symName: __ZN5alloc3fmt6format12format_inner17h634737cadf5be393E, symObjAddr: 0x1C50, symBinAddr: 0x44B78, symSize: 0x1C0 }
  - { offsetInCU: 0x2145, offset: 0xB79FC, size: 0x8, addend: 0x0, symName: __ZN5alloc4sync32arcinner_layout_for_value_layout17hbc6246a576ef70a8E, symObjAddr: 0x5220, symBinAddr: 0x45290, symSize: 0x74 }
  - { offsetInCU: 0x51C, offset: 0xB7FE0, size: 0x8, addend: 0x0, symName: __ZN4core5slice5index26slice_start_index_len_fail8do_panic7runtime17h970119d125af5363E, symObjAddr: 0x1B568, symBinAddr: 0x4BE28, symSize: 0x50 }
  - { offsetInCU: 0x54F, offset: 0xB8013, size: 0x8, addend: 0x0, symName: __ZN4core5slice5index26slice_start_index_len_fail17h07f33eb5dee8df43E, symObjAddr: 0xEA60, symBinAddr: 0x4BCF4, symSize: 0xC }
  - { offsetInCU: 0x595, offset: 0xB8059, size: 0x8, addend: 0x0, symName: __ZN4core5slice5index24slice_end_index_len_fail8do_panic7runtime17ha999f14b70392d33E, symObjAddr: 0x1B5B8, symBinAddr: 0x4BE78, symSize: 0x50 }
  - { offsetInCU: 0x5C8, offset: 0xB808C, size: 0x8, addend: 0x0, symName: __ZN4core5slice5index24slice_end_index_len_fail17h2a40356cb5532398E, symObjAddr: 0xEA6C, symBinAddr: 0x4BD00, symSize: 0xC }
  - { offsetInCU: 0x60E, offset: 0xB80D2, size: 0x8, addend: 0x0, symName: __ZN4core5slice5index22slice_index_order_fail8do_panic7runtime17hfaa0d248286f9257E, symObjAddr: 0x1B608, symBinAddr: 0x4BEC8, symSize: 0x50 }
  - { offsetInCU: 0x641, offset: 0xB8105, size: 0x8, addend: 0x0, symName: __ZN4core5slice5index22slice_index_order_fail17h71563fc72cb83ae1E, symObjAddr: 0xEA78, symBinAddr: 0x4BD0C, symSize: 0xC }
  - { offsetInCU: 0x966, offset: 0xB842A, size: 0x8, addend: 0x0, symName: __ZN4core5slice6memchr14memchr_aligned17hbb5841e76e41a0afE, symObjAddr: 0xE3A8, symBinAddr: 0x47754, symSize: 0xE8 }
  - { offsetInCU: 0xA86, offset: 0xB854A, size: 0x8, addend: 0x0, symName: __ZN4core5slice4sort6stable5drift11sqrt_approx17h433299a3f8487975E, symObjAddr: 0xE5B0, symBinAddr: 0x4783C, symSize: 0x38 }
  - { offsetInCU: 0xB03, offset: 0xB85C7, size: 0x8, addend: 0x0, symName: __ZN4core5slice4sort6shared9smallsort22panic_on_ord_violation17h21d0353b96c249a8E, symObjAddr: 0xE5E8, symBinAddr: 0x4BCBC, symSize: 0x38 }
  - { offsetInCU: 0xC5A, offset: 0xB871E, size: 0x8, addend: 0x0, symName: '__ZN42_$LT$str$u20$as$u20$core..fmt..Display$GT$3fmt17hdd62ce95ce602d9fE', symObjAddr: 0xE06C, symBinAddr: 0x474DC, symSize: 0x20 }
  - { offsetInCU: 0xE1B, offset: 0xB88DF, size: 0x8, addend: 0x0, symName: __ZN4core3fmt9Formatter12pad_integral17hbd5a74d4a9a8a476E, symObjAddr: 0xB940, symBinAddr: 0x46400, symSize: 0x3D0 }
  - { offsetInCU: 0x1103, offset: 0xB8BC7, size: 0x8, addend: 0x0, symName: __ZN4core3fmt9Formatter3pad17hd841fb31e280352aE, symObjAddr: 0xBD8C, symBinAddr: 0x4684C, symSize: 0x304 }
  - { offsetInCU: 0x144E, offset: 0xB8F12, size: 0x8, addend: 0x0, symName: __ZN4core3fmt9Formatter9write_str17hc8eef6a272ef825dE, symObjAddr: 0xC4D8, symBinAddr: 0x46B50, symSize: 0x0 }
  - { offsetInCU: 0x1461, offset: 0xB8F25, size: 0x8, addend: 0x0, symName: __ZN4core3fmt9Formatter12debug_struct17h5fff19f90ab94c2eE, symObjAddr: 0xC50C, symBinAddr: 0x46B6C, symSize: 0x3C }
  - { offsetInCU: 0x149F, offset: 0xB8F63, size: 0x8, addend: 0x0, symName: __ZN4core3fmt9Formatter26debug_struct_field1_finish17hcae0c92d54559845E, symObjAddr: 0xC548, symBinAddr: 0x46BA8, symSize: 0xD0 }
  - { offsetInCU: 0x1576, offset: 0xB903A, size: 0x8, addend: 0x0, symName: __ZN4core3fmt9Formatter26debug_struct_field2_finish17h8dc65a6152ae569eE, symObjAddr: 0xC618, symBinAddr: 0x46C78, symSize: 0x104 }
  - { offsetInCU: 0x164D, offset: 0xB9111, size: 0x8, addend: 0x0, symName: __ZN4core3fmt9Formatter11debug_tuple17h15cdc29fe945392dE, symObjAddr: 0xCC2C, symBinAddr: 0x46D7C, symSize: 0x50 }
  - { offsetInCU: 0x16A1, offset: 0xB9165, size: 0x8, addend: 0x0, symName: __ZN4core3fmt9Formatter25debug_tuple_field1_finish17ha86d8d497f676a50E, symObjAddr: 0xCC7C, symBinAddr: 0x46DCC, symSize: 0x160 }
  - { offsetInCU: 0x18A3, offset: 0xB9367, size: 0x8, addend: 0x0, symName: __ZN4core3fmt9Formatter25debug_tuple_field2_finish17h3e92718de2393fe7E, symObjAddr: 0xCDDC, symBinAddr: 0x46F2C, symSize: 0x1D8 }
  - { offsetInCU: 0x1B9B, offset: 0xB965F, size: 0x8, addend: 0x0, symName: __ZN4core3fmt9Formatter10debug_list17h6eeb158c52ff85f6E, symObjAddr: 0xDB90, symBinAddr: 0x47104, symSize: 0x48 }
  - { offsetInCU: 0x1C4A, offset: 0xB970E, size: 0x8, addend: 0x0, symName: __ZN4core3fmt8builders11DebugStruct5field17hd46827b2d38a8aaeE, symObjAddr: 0x866C, symBinAddr: 0x45B60, symSize: 0x1B4 }
  - { offsetInCU: 0x1E49, offset: 0xB990D, size: 0x8, addend: 0x0, symName: __ZN4core3fmt8builders11DebugStruct21finish_non_exhaustive17h199a4c1dd8a95c06E, symObjAddr: 0x8820, symBinAddr: 0x45D14, symSize: 0xC4 }
  - { offsetInCU: 0x1F58, offset: 0xB9A1C, size: 0x8, addend: 0x0, symName: __ZN4core3fmt8builders11DebugStruct6finish17hca809e9f821a32d3E, symObjAddr: 0x88E4, symBinAddr: 0x45DD8, symSize: 0x80 }
  - { offsetInCU: 0x2066, offset: 0xB9B2A, size: 0x8, addend: 0x0, symName: '__ZN68_$LT$core..fmt..builders..PadAdapter$u20$as$u20$core..fmt..Write$GT$9write_str17hf62ef6755aef44e7E', symObjAddr: 0x8394, symBinAddr: 0x45888, symSize: 0x258 }
  - { offsetInCU: 0x2311, offset: 0xB9DD5, size: 0x8, addend: 0x0, symName: '__ZN68_$LT$core..fmt..builders..PadAdapter$u20$as$u20$core..fmt..Write$GT$10write_char17h06f2a225b38a4018E', symObjAddr: 0x85EC, symBinAddr: 0x45AE0, symSize: 0x80 }
  - { offsetInCU: 0x239C, offset: 0xB9E60, size: 0x8, addend: 0x0, symName: __ZN4core3fmt8builders10DebugTuple5field17h066771fbad0b250fE, symObjAddr: 0x8964, symBinAddr: 0x45E58, symSize: 0x148 }
  - { offsetInCU: 0x2526, offset: 0xB9FEA, size: 0x8, addend: 0x0, symName: __ZN4core3fmt8builders10DebugTuple6finish17h54d95613803cca22E, symObjAddr: 0x8B6C, symBinAddr: 0x45FA0, symSize: 0xB0 }
  - { offsetInCU: 0x266D, offset: 0xBA131, size: 0x8, addend: 0x0, symName: __ZN4core3fmt8builders8DebugSet5entry17h24ebf8bbe6a6fee6E, symObjAddr: 0x8C1C, symBinAddr: 0x46050, symSize: 0x0 }
  - { offsetInCU: 0x2811, offset: 0xBA2D5, size: 0x8, addend: 0x0, symName: __ZN4core3fmt8builders9DebugList6finish17h6961b7d751a76580E, symObjAddr: 0x8F3C, symBinAddr: 0x46198, symSize: 0x4C }
  - { offsetInCU: 0x28C9, offset: 0xBA38D, size: 0x8, addend: 0x0, symName: '__ZN4core3fmt3num3imp52_$LT$impl$u20$core..fmt..Display$u20$for$u20$u32$GT$3fmt17hbee869946ca4cdc4E', symObjAddr: 0x19F98, symBinAddr: 0x498EC, symSize: 0x1C }
  - { offsetInCU: 0x28EF, offset: 0xBA3B3, size: 0x8, addend: 0x0, symName: '__ZN4core3fmt3num3imp52_$LT$impl$u20$core..fmt..Display$u20$for$u20$u64$GT$3fmt17h65e585cd2fbdd9c7E', symObjAddr: 0x1A100, symBinAddr: 0x49A54, symSize: 0x0 }
  - { offsetInCU: 0x2915, offset: 0xBA3D9, size: 0x8, addend: 0x0, symName: '__ZN4core3fmt3num3imp52_$LT$impl$u20$core..fmt..Display$u20$for$u20$i32$GT$3fmt17h39bed4b042eb2dc0E', symObjAddr: 0x19FB4, symBinAddr: 0x49908, symSize: 0x28 }
  - { offsetInCU: 0x2978, offset: 0xBA43C, size: 0x8, addend: 0x0, symName: '__ZN4core3fmt3num3imp51_$LT$impl$u20$core..fmt..Display$u20$for$u20$u8$GT$3fmt17h15368b47240d2f81E', symObjAddr: 0x19CC4, symBinAddr: 0x4983C, symSize: 0xB0 }
  - { offsetInCU: 0x2A3D, offset: 0xBA501, size: 0x8, addend: 0x0, symName: '__ZN4core3fmt3num3imp21_$LT$impl$u20$u32$GT$4_fmt17hf2e40021c029f411E', symObjAddr: 0x19FDC, symBinAddr: 0x49930, symSize: 0x124 }
  - { offsetInCU: 0x2B1D, offset: 0xBA5E1, size: 0x8, addend: 0x0, symName: '__ZN4core3fmt3num3imp21_$LT$impl$u20$u64$GT$4_fmt17h3c3b264cd292a07dE', symObjAddr: 0x1A144, symBinAddr: 0x49A70, symSize: 0x130 }
  - { offsetInCU: 0x2D2B, offset: 0xBA7EF, size: 0x8, addend: 0x0, symName: '__ZN4core3fmt3num53_$LT$impl$u20$core..fmt..LowerHex$u20$for$u20$i32$GT$3fmt17h171a5740f7482657E', symObjAddr: 0x190A0, symBinAddr: 0x4963C, symSize: 0x0 }
  - { offsetInCU: 0x2DCF, offset: 0xBA893, size: 0x8, addend: 0x0, symName: '__ZN4core3fmt3num53_$LT$impl$u20$core..fmt..UpperHex$u20$for$u20$i32$GT$3fmt17h0ed90d9531dac682E', symObjAddr: 0x19120, symBinAddr: 0x496BC, symSize: 0x0 }
  - { offsetInCU: 0x2E73, offset: 0xBA937, size: 0x8, addend: 0x0, symName: '__ZN4core3fmt3num53_$LT$impl$u20$core..fmt..LowerHex$u20$for$u20$i64$GT$3fmt17hdbd5e4288621d6e2E', symObjAddr: 0x19280, symBinAddr: 0x4973C, symSize: 0x0 }
  - { offsetInCU: 0x2F17, offset: 0xBA9DB, size: 0x8, addend: 0x0, symName: '__ZN4core3fmt3num53_$LT$impl$u20$core..fmt..UpperHex$u20$for$u20$i64$GT$3fmt17hff7866729cb01470E', symObjAddr: 0x19300, symBinAddr: 0x497BC, symSize: 0x0 }
  - { offsetInCU: 0x2FAE, offset: 0xBAA72, size: 0x8, addend: 0x0, symName: '__ZN4core3fmt3num52_$LT$impl$u20$core..fmt..LowerHex$u20$for$u20$i8$GT$3fmt17h6a8935ae092ee1dfE', symObjAddr: 0x18CE0, symBinAddr: 0x4953C, symSize: 0x0 }
  - { offsetInCU: 0x305A, offset: 0xBAB1E, size: 0x8, addend: 0x0, symName: '__ZN4core3fmt3num52_$LT$impl$u20$core..fmt..UpperHex$u20$for$u20$i8$GT$3fmt17h25090d579c87f1e5E', symObjAddr: 0x18D60, symBinAddr: 0x495BC, symSize: 0x0 }
  - { offsetInCU: 0x3177, offset: 0xBAC3B, size: 0x8, addend: 0x0, symName: '__ZN57_$LT$core..fmt..Formatter$u20$as$u20$core..fmt..Write$GT$10write_char17h36488c019554ce6aE', symObjAddr: 0xDC78, symBinAddr: 0x4714C, symSize: 0x1C }
  - { offsetInCU: 0x31A8, offset: 0xBAC6C, size: 0x8, addend: 0x0, symName: __ZN4core3fmt5Write9write_fmt17hd0f74628e942126eE, symObjAddr: 0xB6D8, symBinAddr: 0x461E4, symSize: 0x1C }
  - { offsetInCU: 0x320E, offset: 0xBACD2, size: 0x8, addend: 0x0, symName: '__ZN59_$LT$core..fmt..Arguments$u20$as$u20$core..fmt..Display$GT$3fmt17h703602b44c1a1596E', symObjAddr: 0xB740, symBinAddr: 0x46200, symSize: 0x18 }
  - { offsetInCU: 0x323C, offset: 0xBAD00, size: 0x8, addend: 0x0, symName: __ZN4core3fmt5write17hbc92919d8e8f9a96E, symObjAddr: 0xB758, symBinAddr: 0x46218, symSize: 0x1E8 }
  - { offsetInCU: 0x345C, offset: 0xBAF20, size: 0x8, addend: 0x0, symName: __ZN4core3fmt9Formatter12pad_integral12write_prefix17hdf2f1763e6fde183E, symObjAddr: 0xBD10, symBinAddr: 0x467D0, symSize: 0x7C }
  - { offsetInCU: 0x34A0, offset: 0xBAF64, size: 0x8, addend: 0x0, symName: '__ZN42_$LT$$RF$T$u20$as$u20$core..fmt..Debug$GT$3fmt17h1bce3e78394c3809E', symObjAddr: 0x1B280, symBinAddr: 0x49BA0, symSize: 0xEC }
  - { offsetInCU: 0x35CD, offset: 0xBB091, size: 0x8, addend: 0x0, symName: '__ZN42_$LT$$RF$T$u20$as$u20$core..fmt..Debug$GT$3fmt17h6ab5c0402efdbe36E', symObjAddr: 0x1B36C, symBinAddr: 0x49C8C, symSize: 0xE4 }
  - { offsetInCU: 0x36FA, offset: 0xBB1BE, size: 0x8, addend: 0x0, symName: '__ZN42_$LT$$RF$T$u20$as$u20$core..fmt..Debug$GT$3fmt17hafc6280c90344902E', symObjAddr: 0x1B464, symBinAddr: 0x49D70, symSize: 0x1C }
  - { offsetInCU: 0x3733, offset: 0xBB1F7, size: 0x8, addend: 0x0, symName: '__ZN40_$LT$str$u20$as$u20$core..fmt..Debug$GT$3fmt17h809edafbf5acc0b8E', symObjAddr: 0xDCF8, symBinAddr: 0x47168, symSize: 0x374 }
  - { offsetInCU: 0x3B9A, offset: 0xBB65E, size: 0x8, addend: 0x0, symName: '__ZN41_$LT$char$u20$as$u20$core..fmt..Debug$GT$3fmt17hfc009a6cdd99d608E', symObjAddr: 0xE08C, symBinAddr: 0x474FC, symSize: 0xAC }
  - { offsetInCU: 0x3C9E, offset: 0xBB762, size: 0x8, addend: 0x0, symName: '__ZN43_$LT$char$u20$as$u20$core..fmt..Display$GT$3fmt17h5976cd45245f3f5dE', symObjAddr: 0xE138, symBinAddr: 0x475A8, symSize: 0xEC }
  - { offsetInCU: 0x3CF9, offset: 0xBB7BD, size: 0x8, addend: 0x0, symName: __ZN4core3fmt17pointer_fmt_inner17hf2736a254f20f10aE, symObjAddr: 0xE224, symBinAddr: 0x47694, symSize: 0xC0 }
  - { offsetInCU: 0x3DDD, offset: 0xBB8A1, size: 0x8, addend: 0x0, symName: '__ZN44_$LT$$RF$T$u20$as$u20$core..fmt..Display$GT$3fmt17hce168b394b8ee0eeE', symObjAddr: 0x1B4C8, symBinAddr: 0x49D8C, symSize: 0x1C }
  - { offsetInCU: 0x3F26, offset: 0xBB9EA, size: 0x8, addend: 0x0, symName: __ZN4core6option13unwrap_failed17hee0a0365f557b127E, symObjAddr: 0x7CE4, symBinAddr: 0x4B890, symSize: 0x1C }
  - { offsetInCU: 0x3F41, offset: 0xBBA05, size: 0x8, addend: 0x0, symName: __ZN4core6option13expect_failed17h5266eebf69f4aa13E, symObjAddr: 0x7D00, symBinAddr: 0x4B8AC, symSize: 0x48 }
  - { offsetInCU: 0x3F99, offset: 0xBBA5D, size: 0x8, addend: 0x0, symName: '__ZN71_$LT$core..ops..range..Range$LT$Idx$GT$$u20$as$u20$core..fmt..Debug$GT$3fmt17h84a706ae1bb1673fE', symObjAddr: 0x43A0, symBinAddr: 0x45304, symSize: 0x1FC }
  - { offsetInCU: 0x445E, offset: 0xBBF22, size: 0x8, addend: 0x0, symName: __ZN4core6result13unwrap_failed17hd402f38eeb0f0f01E, symObjAddr: 0x82C4, symBinAddr: 0x4BC60, symSize: 0x5C }
  - { offsetInCU: 0x4681, offset: 0xBC145, size: 0x8, addend: 0x0, symName: __ZN4core3str5count14do_count_chars17h3cc4e7d17f22859bE, symObjAddr: 0xF0E0, symBinAddr: 0x47AB8, symSize: 0x724 }
  - { offsetInCU: 0x49CB, offset: 0xBC48F, size: 0x8, addend: 0x0, symName: __ZN4core3str5count23char_count_general_case17h2a83ca3d8d4fd8dcE, symObjAddr: 0xF804, symBinAddr: 0x481DC, symSize: 0x2B0 }
  - { offsetInCU: 0x4B07, offset: 0xBC5CB, size: 0x8, addend: 0x0, symName: __ZN4core3str7pattern11StrSearcher3new17he8d45b5fc1614870E, symObjAddr: 0x10210, symBinAddr: 0x4848C, symSize: 0x8BC }
  - { offsetInCU: 0x4DE8, offset: 0xBC8AC, size: 0x8, addend: 0x0, symName: __ZN4core3str6traits23str_index_overflow_fail17h5c14f5d54e465aa8E, symObjAddr: 0x101DC, symBinAddr: 0x4BD18, symSize: 0x34 }
  - { offsetInCU: 0x4E3D, offset: 0xBC901, size: 0x8, addend: 0x0, symName: __ZN4core3str8converts9from_utf817h5e1550cb7949e868E, symObjAddr: 0xEC58, symBinAddr: 0x47874, symSize: 0x244 }
  - { offsetInCU: 0x4EBE, offset: 0xBC982, size: 0x8, addend: 0x0, symName: '__ZN87_$LT$core..str..lossy..Utf8Chunks$u20$as$u20$core..iter..traits..iterator..Iterator$GT$4next17h374dc9fa0f904d4cE', symObjAddr: 0x10E84, symBinAddr: 0x48D48, symSize: 0x1CC }
  - { offsetInCU: 0x50C1, offset: 0xBCB85, size: 0x8, addend: 0x0, symName: __ZN4core3str16slice_error_fail17h1a6bc2122f7e64f9E, symObjAddr: 0x1111C, symBinAddr: 0x4BD4C, symSize: 0xC }
  - { offsetInCU: 0x50DB, offset: 0xBCB9F, size: 0x8, addend: 0x0, symName: __ZN4core3str19slice_error_fail_rt17h88ad3ed5401bd849E, symObjAddr: 0x1115C, symBinAddr: 0x48F14, symSize: 0x348 }
  - { offsetInCU: 0x52FC, offset: 0xBCDC0, size: 0x8, addend: 0x0, symName: '__ZN4core4char7methods22_$LT$impl$u20$char$GT$16escape_debug_ext17h39434fc1b2cd1e2eE', symObjAddr: 0x51DC, symBinAddr: 0x45524, symSize: 0x268 }
  - { offsetInCU: 0x5541, offset: 0xBD005, size: 0x8, addend: 0x0, symName: '__ZN63_$LT$core..cell..BorrowMutError$u20$as$u20$core..fmt..Debug$GT$3fmt17h4c32fd475b4f42ecE', symObjAddr: 0x505C, symBinAddr: 0x45500, symSize: 0x24 }
  - { offsetInCU: 0x559E, offset: 0xBD062, size: 0x8, addend: 0x0, symName: __ZN4core4cell22panic_already_borrowed17h1a656f382e4aef2dE, symObjAddr: 0x50A0, symBinAddr: 0x4B84C, symSize: 0x44 }
  - { offsetInCU: 0x55ED, offset: 0xBD0B1, size: 0x8, addend: 0x0, symName: __ZN4core7unicode12unicode_data15grapheme_extend11lookup_slow17h980e892f3d6902cdE, symObjAddr: 0x1CBAC, symBinAddr: 0x49DCC, symSize: 0x174 }
  - { offsetInCU: 0x57D2, offset: 0xBD296, size: 0x8, addend: 0x0, symName: __ZN4core7unicode12unicode_data2cc6lookup17h4a70a5ddbe337173E, symObjAddr: 0x1CB88, symBinAddr: 0x49DA8, symSize: 0x24 }
  - { offsetInCU: 0x583A, offset: 0xBD2FE, size: 0x8, addend: 0x0, symName: __ZN4core7unicode9printable12is_printable17h9389191b1bd28b1bE, symObjAddr: 0x11F14, symBinAddr: 0x4925C, symSize: 0x2B4 }
  - { offsetInCU: 0x5B76, offset: 0xBD63A, size: 0x8, addend: 0x0, symName: __ZN4core3ffi5c_str4CStr19from_bytes_with_nul17ha8772b98f6bf7f52E, symObjAddr: 0x5838, symBinAddr: 0x4578C, symSize: 0xFC }
  - { offsetInCU: 0x5C63, offset: 0xBD727, size: 0x8, addend: 0x0, symName: __ZN4core9panicking9panic_fmt17h529fda7ea817ba4fE, symObjAddr: 0x7E38, symBinAddr: 0x4B8F4, symSize: 0x20 }
  - { offsetInCU: 0x5CA6, offset: 0xBD76A, size: 0x8, addend: 0x0, symName: __ZN4core9panicking18panic_nounwind_fmt17hae736249e48cf020E, symObjAddr: 0x7E58, symBinAddr: 0x4B914, symSize: 0x3C }
  - { offsetInCU: 0x5CEB, offset: 0xBD7AF, size: 0x8, addend: 0x0, symName: __ZN4core9panicking5panic17hdf8b426f88b5fed0E, symObjAddr: 0x7E94, symBinAddr: 0x4B950, symSize: 0x34 }
  - { offsetInCU: 0x5D1A, offset: 0xBD7DE, size: 0x8, addend: 0x0, symName: __ZN4core9panicking14panic_nounwind17hb89b2a5de4429251E, symObjAddr: 0x7EC8, symBinAddr: 0x4B984, symSize: 0x3C }
  - { offsetInCU: 0x5D49, offset: 0xBD80D, size: 0x8, addend: 0x0, symName: __ZN4core9panicking26panic_nounwind_nobacktrace17h5cc6bbd62d163285E, symObjAddr: 0x7F04, symBinAddr: 0x4B9C0, symSize: 0x3C }
  - { offsetInCU: 0x5D78, offset: 0xBD83C, size: 0x8, addend: 0x0, symName: __ZN4core9panicking18panic_bounds_check17he315898ba5b8216dE, symObjAddr: 0x7F88, symBinAddr: 0x4B9FC, symSize: 0x50 }
  - { offsetInCU: 0x5DAA, offset: 0xBD86E, size: 0x8, addend: 0x0, symName: __ZN4core9panicking36panic_misaligned_pointer_dereference17h85d09ac4286f0f5aE, symObjAddr: 0x7FD8, symBinAddr: 0x4BA4C, symSize: 0x80 }
  - { offsetInCU: 0x5DDC, offset: 0xBD8A0, size: 0x8, addend: 0x0, symName: __ZN4core9panicking30panic_null_pointer_dereference17h876d13db2aeb73efE, symObjAddr: 0x8058, symBinAddr: 0x4BACC, symSize: 0x38 }
  - { offsetInCU: 0x5E0D, offset: 0xBD8D1, size: 0x8, addend: 0x0, symName: __ZN4core9panicking19panic_cannot_unwind17h620b5c02cb97e1ccE, symObjAddr: 0x8090, symBinAddr: 0x4BB04, symSize: 0x18 }
  - { offsetInCU: 0x5E28, offset: 0xBD8EC, size: 0x8, addend: 0x0, symName: __ZN4core9panicking16panic_in_cleanup17hd39cfd9b63d9c6c3E, symObjAddr: 0x80A8, symBinAddr: 0x4BB1C, symSize: 0x18 }
  - { offsetInCU: 0x5E43, offset: 0xBD907, size: 0x8, addend: 0x0, symName: __ZN4core9panicking13assert_failed17h46c7a5eb4a44d045E, symObjAddr: 0x8124, symBinAddr: 0x4BB34, symSize: 0x24 }
  - { offsetInCU: 0x5E5E, offset: 0xBD922, size: 0x8, addend: 0x0, symName: __ZN4core9panicking13assert_failed17hd869cf77758d1e8dE, symObjAddr: 0x8148, symBinAddr: 0x4BB58, symSize: 0x24 }
  - { offsetInCU: 0x5E79, offset: 0xBD93D, size: 0x8, addend: 0x0, symName: __ZN4core9panicking19assert_failed_inner17h211a35e5e4a5a4e2E, symObjAddr: 0x818C, symBinAddr: 0x4BB7C, symSize: 0xE4 }
  - { offsetInCU: 0x5EC6, offset: 0xBD98A, size: 0x8, addend: 0x0, symName: __ZN4core9panicking11panic_const24panic_const_add_overflow17he3f17e21ee4f3d6cE, symObjAddr: 0x179E0, symBinAddr: 0x4BD58, symSize: 0x34 }
  - { offsetInCU: 0x5EF5, offset: 0xBD9B9, size: 0x8, addend: 0x0, symName: __ZN4core9panicking11panic_const24panic_const_sub_overflow17h162622a997f9aff5E, symObjAddr: 0x17A14, symBinAddr: 0x4BD8C, symSize: 0x34 }
  - { offsetInCU: 0x5F24, offset: 0xBD9E8, size: 0x8, addend: 0x0, symName: __ZN4core9panicking11panic_const23panic_const_div_by_zero17h8a13aa9622095a00E, symObjAddr: 0x17B80, symBinAddr: 0x4BDC0, symSize: 0x34 }
  - { offsetInCU: 0x5F53, offset: 0xBDA17, size: 0x8, addend: 0x0, symName: __ZN4core9panicking11panic_const23panic_const_rem_by_zero17heda60b22c8830406E, symObjAddr: 0x17BB4, symBinAddr: 0x4BDF4, symSize: 0x34 }
  - { offsetInCU: 0x5FBD, offset: 0xBDA81, size: 0x8, addend: 0x0, symName: __ZN4core5alloc6layout6Layout19is_size_align_valid17hf4d69d90b5c55857E, symObjAddr: 0x12464, symBinAddr: 0x49510, symSize: 0x2C }
  - { offsetInCU: 0x6008, offset: 0xBDACC, size: 0x8, addend: 0x0, symName: _OUTLINED_FUNCTION_0, symObjAddr: 0x1D3C8, symBinAddr: 0x49F40, symSize: 0x10 }
...
